(dp1
S'1.3.6.1.4.1.14519.5.2.1.6279.6001.272123398257168239653655006815'
p2
(lp3
S'188/087.xml'
p4
aS'188/088.xml'
p5
aS'188/089.xml'
p6
aS'188/090.xml'
p7
asS'1.3.6.1.4.1.14519.5.2.1.6279.6001.153646219551578201092527860224'
p8
(lp9
S'188/082.xml'
p10
aS'188/083.xml'
p11
aS'188/084.xml'
p12
aS'188/085.xml'
p13
aS'188/086.xml'
p14
asS'1.3.6.1.4.1.14519.5.2.1.6279.6001.192256506776434538421891524301'
p15
(lp16
S'189/028.xml'
p17
aS'189/029.xml'
p18
aS'189/030.xml'
p19
aS'189/031.xml'
p20
aS'189/032.xml'
p21
aS'189/033.xml'
p22
asS'1.3.6.1.4.1.14519.5.2.1.6279.6001.550599855064600241623943717588'
p23
(lp24
S'188/091.xml'
p25
aS'188/092.xml'
p26
aS'188/093.xml'
p27
asS'1.3.6.1.4.1.14519.5.2.1.6279.6001.855232435861303786204450738044'
p28
(lp29
S'188/094.xml'
p30
aS'188/095.xml'
p31
aS'188/096.xml'
p32
asS'1.3.6.1.4.1.14519.5.2.1.6279.6001.229343399861261429237689489892'
p33
(lp34
S'189/173.xml'
p35
aS'189/174.xml'
p36
as.