(dp1
S'188/039'
p2
S'LIDC-IDRI-0595'
p3
sS'189/070'
p4
S'LIDC-IDRI-0740'
p5
sS'185/074'
p6
S'LIDC-IDRI-0004'
p7
sS'187/111'
p8
S'LIDC-IDRI-0368'
p9
sS'189/013'
p10
S'LIDC-IDRI-0792'
p11
sS'185/111'
p12
S'LIDC-IDRI-0023'
p13
sS'186/272'
p14
S'LIDC-IDRI-0261'
p15
sS'185/078'
p16
S'LIDC-IDRI-0006'
p17
sS'187/279'
p18
S'LIDC-IDRI-0534'
p19
sS'187/278'
p20
S'LIDC-IDRI-0533'
p21
sS'187/277'
p22
S'LIDC-IDRI-0532'
p23
sS'187/276'
p24
S'LIDC-IDRI-0531'
p25
sS'187/275'
p26
S'LIDC-IDRI-0530'
p27
sS'187/274'
p28
S'LIDC-IDRI-0529'
p29
sS'187/273'
p30
S'LIDC-IDRI-0528'
p31
sS'187/272'
p32
S'LIDC-IDRI-0527'
p33
sS'187/271'
p34
S'LIDC-IDRI-0526'
p35
sS'187/270'
p36
S'LIDC-IDRI-0525'
p37
sS'188/053'
p38
S'LIDC-IDRI-0609'
p39
sS'185/094'
p40
S'LIDC-IDRI-0014'
p41
sS'188/102'
p42
S'LIDC-IDRI-1003'
p43
sS'187/179'
p44
S'LIDC-IDRI-0436'
p45
sS'187/073'
p46
S'LIDC-IDRI-0332'
p47
sS'188/058'
p48
S'LIDC-IDRI-0614'
p49
sS'187/072'
p50
S'LIDC-IDRI-0332'
p51
sS'186/242'
p52
S'LIDC-IDRI-0246'
p53
sS'188/196'
p54
S'LIDC-IDRI-0909'
p55
sS'187/075'
p56
S'LIDC-IDRI-0334'
p57
sS'187/074'
p58
S'LIDC-IDRI-0333'
p59
sS'185/248'
p60
S'LIDC-IDRI-0090'
p61
sS'186/208'
p62
S'LIDC-IDRI-0228'
p63
sS'187/077'
p64
S'LIDC-IDRI-0336'
p65
sS'187/237'
p66
S'LIDC-IDRI-0492'
p67
sS'185/240'
p68
S'LIDC-IDRI-0086'
p69
sS'185/243'
p70
S'LIDC-IDRI-0087'
p71
sS'185/245'
p72
S'LIDC-IDRI-0088'
p73
sS'185/246'
p74
S'LIDC-IDRI-0089'
p75
sS'187/079'
p76
S'LIDC-IDRI-0338'
p77
sS'187/078'
p78
S'LIDC-IDRI-0337'
p79
sS'187/172'
p80
S'LIDC-IDRI-0429'
p81
sS'188/109'
p82
S'LIDC-IDRI-0996'
p83
sS'187/189'
p84
S'LIDC-IDRI-0445'
p85
sS'187/023'
p86
S'LIDC-IDRI-0287'
p87
sS'187/020'
p88
S'LIDC-IDRI-0286'
p89
sS'187/026'
p90
S'LIDC-IDRI-0289'
p91
sS'187/024'
p92
S'LIDC-IDRI-0288'
p93
sS'187/181'
p94
S'LIDC-IDRI-0438'
p95
sS'187/180'
p96
S'LIDC-IDRI-0437'
p97
sS'187/183'
p98
S'LIDC-IDRI-0440'
p99
sS'187/029'
p100
S'LIDC-IDRI-0290'
p101
sS'187/185'
p102
S'LIDC-IDRI-0442'
p103
sS'187/184'
p104
S'LIDC-IDRI-0441'
p105
sS'187/187'
p106
S'LIDC-IDRI-0443'
p107
sS'187/186'
p108
S'LIDC-IDRI-0442'
p109
sS'188/238'
p110
S'LIDC-IDRI-0867'
p111
sS'188/239'
p112
S'LIDC-IDRI-0866'
p113
sS'188/234'
p114
S'LIDC-IDRI-0871'
p115
sS'188/235'
p116
S'LIDC-IDRI-0870'
p117
sS'188/236'
p118
S'LIDC-IDRI-0869'
p119
sS'188/237'
p120
S'LIDC-IDRI-0868'
p121
sS'188/230'
p122
S'LIDC-IDRI-0875'
p123
sS'188/231'
p124
S'LIDC-IDRI-0874'
p125
sS'188/232'
p126
S'LIDC-IDRI-0873'
p127
sS'188/233'
p128
S'LIDC-IDRI-0872'
p129
sS'186/102'
p130
S'LIDC-IDRI-0173'
p131
sS'186/103'
p132
S'LIDC-IDRI-0174'
p133
sS'186/106'
p134
S'LIDC-IDRI-0175'
p135
sS'186/107'
p136
S'LIDC-IDRI-0176'
p137
sS'186/109'
p138
S'LIDC-IDRI-0177'
p139
sS'185/150'
p140
S'LIDC-IDRI-0043'
p141
sS'185/152'
p142
S'LIDC-IDRI-0044'
p143
sS'185/154'
p144
S'LIDC-IDRI-0045'
p145
sS'185/156'
p146
S'LIDC-IDRI-0046'
p147
sS'185/159'
p148
S'LIDC-IDRI-0047'
p149
sS'187/057'
p150
S'LIDC-IDRI-0317'
p151
sS'187/056'
p152
S'LIDC-IDRI-0316'
p153
sS'187/055'
p154
S'LIDC-IDRI-0315'
p155
sS'187/054'
p156
S'LIDC-IDRI-0315'
p157
sS'187/053'
p158
S'LIDC-IDRI-0314'
p159
sS'187/052'
p160
S'LIDC-IDRI-0313'
p161
sS'187/051'
p162
S'LIDC-IDRI-0312'
p163
sS'187/050'
p164
S'LIDC-IDRI-0311'
p165
sS'187/116'
p166
S'LIDC-IDRI-0373'
p167
sS'187/117'
p168
S'LIDC-IDRI-0374'
p169
sS'187/114'
p170
S'LIDC-IDRI-0371'
p171
sS'187/115'
p172
S'LIDC-IDRI-0372'
p173
sS'187/112'
p174
S'LIDC-IDRI-0369'
p175
sS'187/113'
p176
S'LIDC-IDRI-0370'
p177
sS'187/059'
p178
S'LIDC-IDRI-0319'
p179
sS'187/058'
p180
S'LIDC-IDRI-0318'
p181
sS'188/128'
p182
S'LIDC-IDRI-0977'
p183
sS'188/129'
p184
S'LIDC-IDRI-0976'
p185
sS'188/283'
p186
S'LIDC-IDRI-0822'
p187
sS'188/282'
p188
S'LIDC-IDRI-0823'
p189
sS'188/285'
p190
S'LIDC-IDRI-0820'
p191
sS'188/284'
p192
S'LIDC-IDRI-0821'
p193
sS'188/287'
p194
S'LIDC-IDRI-0818'
p195
sS'188/286'
p196
S'LIDC-IDRI-0819'
p197
sS'188/289'
p198
S'LIDC-IDRI-0816'
p199
sS'188/121'
p200
S'LIDC-IDRI-0984'
p201
sS'188/122'
p202
S'LIDC-IDRI-0983'
p203
sS'188/123'
p204
S'LIDC-IDRI-0982'
p205
sS'188/124'
p206
S'LIDC-IDRI-0981'
p207
sS'188/125'
p208
S'LIDC-IDRI-0980'
p209
sS'188/126'
p210
S'LIDC-IDRI-0979'
p211
sS'188/127'
p212
S'LIDC-IDRI-0978'
p213
sS'186/028'
p214
S'LIDC-IDRI-0135'
p215
sS'187/233'
p216
S'LIDC-IDRI-0488'
p217
sS'187/232'
p218
S'LIDC-IDRI-0487'
p219
sS'187/231'
p220
S'LIDC-IDRI-0486'
p221
sS'187/230'
p222
S'LIDC-IDRI-0485'
p223
sS'186/038'
p224
S'LIDC-IDRI-0140'
p225
sS'186/039'
p226
S'LIDC-IDRI-0141'
p227
sS'187/235'
p228
S'LIDC-IDRI-0490'
p229
sS'187/234'
p230
S'LIDC-IDRI-0489'
p231
sS'186/034'
p232
S'LIDC-IDRI-0138'
p233
sS'186/035'
p234
S'LIDC-IDRI-0139'
p235
sS'187/239'
p236
S'LIDC-IDRI-0494'
p237
sS'187/238'
p238
S'LIDC-IDRI-0493'
p239
sS'186/031'
p240
S'LIDC-IDRI-0137'
p241
sS'189/172'
p242
S'LIDC-IDRI-0638'
p243
sS'189/173'
p244
S'LIDC-IDRI-0127'
p245
sS'189/170'
p246
S'LIDC-IDRI-0640'
p247
sS'189/171'
p248
S'LIDC-IDRI-0639'
p249
sS'188/281'
p250
S'LIDC-IDRI-0824'
p251
sS'188/054'
p252
S'LIDC-IDRI-0610'
p253
sS'188/055'
p254
S'LIDC-IDRI-0611'
p255
sS'188/056'
p256
S'LIDC-IDRI-0612'
p257
sS'187/105'
p258
S'LIDC-IDRI-0363'
p259
sS'188/050'
p260
S'LIDC-IDRI-0606'
p261
sS'186/021'
p262
S'LIDC-IDRI-0131'
p263
sS'185/088'
p264
S'LIDC-IDRI-0011'
p265
sS'185/089'
p266
S'LIDC-IDRI-0012'
p267
sS'185/086'
p268
S'LIDC-IDRI-0010'
p269
sS'189/076'
p270
S'LIDC-IDRI-0734'
p271
sS'189/075'
p272
S'LIDC-IDRI-0735'
p273
sS'185/085'
p274
S'LIDC-IDRI-0009'
p275
sS'185/082'
p276
S'LIDC-IDRI-0008'
p277
sS'188/059'
p278
S'LIDC-IDRI-0615'
p279
sS'189/071'
p280
S'LIDC-IDRI-0739'
p281
sS'185/081'
p282
S'LIDC-IDRI-0007'
p283
sS'188/280'
p284
S'LIDC-IDRI-0825'
p285
sS'188/033'
p286
S'LIDC-IDRI-0589'
p287
sS'187/104'
p288
S'LIDC-IDRI-0362'
p289
sS'185/288'
p290
S'LIDC-IDRI-0112'
p291
sS'185/285'
p292
S'LIDC-IDRI-0109'
p293
sS'185/287'
p294
S'LIDC-IDRI-0111'
p295
sS'185/280'
p296
S'LIDC-IDRI-0107'
p297
sS'185/282'
p298
S'LIDC-IDRI-0108'
p299
sS'186/081'
p300
S'LIDC-IDRI-0163'
p301
sS'186/084'
p302
S'LIDC-IDRI-0164'
p303
sS'186/086'
p304
S'LIDC-IDRI-0165'
p305
sS'186/088'
p306
S'LIDC-IDRI-0166'
p307
sS'188/034'
p308
S'LIDC-IDRI-0590'
p309
sS'186/183'
p310
S'LIDC-IDRI-0215'
p311
sS'188/270'
p312
S'LIDC-IDRI-0835'
p313
sS'188/271'
p314
S'LIDC-IDRI-0834'
p315
sS'188/272'
p316
S'LIDC-IDRI-0833'
p317
sS'188/273'
p318
S'LIDC-IDRI-0832'
p319
sS'188/274'
p320
S'LIDC-IDRI-0831'
p321
sS'188/275'
p322
S'LIDC-IDRI-0830'
p323
sS'188/276'
p324
S'LIDC-IDRI-0829'
p325
sS'188/277'
p326
S'LIDC-IDRI-0828'
p327
sS'188/278'
p328
S'LIDC-IDRI-0827'
p329
sS'188/279'
p330
S'LIDC-IDRI-0826'
p331
sS'186/155'
p332
S'LIDC-IDRI-0201'
p333
sS'185/231'
p334
S'LIDC-IDRI-0081'
p335
sS'189/169'
p336
S'LIDC-IDRI-0641'
p337
sS'185/233'
p338
S'LIDC-IDRI-0082'
p339
sS'186/274'
p340
S'LIDC-IDRI-0263'
p341
sS'185/234'
p342
S'LIDC-IDRI-0083'
p343
sS'185/236'
p344
S'LIDC-IDRI-0084'
p345
sS'185/238'
p346
S'LIDC-IDRI-0085'
p347
sS'187/109'
p348
S'LIDC-IDRI-0366'
p349
sS'186/258'
p350
S'LIDC-IDRI-0254'
p351
sS'186/259'
p352
S'LIDC-IDRI-0255'
p353
sS'187/203'
p354
S'LIDC-IDRI-0459'
p355
sS'188/044'
p356
S'LIDC-IDRI-0600'
p357
sS'186/151'
p358
S'LIDC-IDRI-0199'
p359
sS'188/043'
p360
S'LIDC-IDRI-0599'
p361
sS'189/087'
p362
S'LIDC-IDRI-0723'
p363
sS'186/254'
p364
S'LIDC-IDRI-0252'
p365
sS'188/041'
p366
S'LIDC-IDRI-0597'
p367
sS'187/108'
p368
S'LIDC-IDRI-0365'
p369
sS'185/096'
p370
S'LIDC-IDRI-0015'
p371
sS'186/256'
p372
S'LIDC-IDRI-0253'
p373
sS'187/152'
p374
S'LIDC-IDRI-0409'
p375
sS'187/153'
p376
S'LIDC-IDRI-0410'
p377
sS'187/150'
p378
S'LIDC-IDRI-0407'
p379
sS'187/151'
p380
S'LIDC-IDRI-0408'
p381
sS'187/156'
p382
S'LIDC-IDRI-0413'
p383
sS'187/157'
p384
S'LIDC-IDRI-0414'
p385
sS'187/154'
p386
S'LIDC-IDRI-0411'
p387
sS'187/155'
p388
S'LIDC-IDRI-0412'
p389
sS'187/158'
p390
S'LIDC-IDRI-0415'
p391
sS'187/159'
p392
S'LIDC-IDRI-0416'
p393
sS'189/088'
p394
S'LIDC-IDRI-0722'
p395
sS'186/251'
p396
S'LIDC-IDRI-0251'
p397
sS'187/019'
p398
S'LIDC-IDRI-0285'
p399
sS'185/251'
p400
S'LIDC-IDRI-0091'
p401
sS'187/012'
p402
S'LIDC-IDRI-0282'
p403
sS'187/011'
p404
S'LIDC-IDRI-0281'
p405
sS'157/159'
p406
S'LIDC-IDRI-0069'
p407
sS'187/016'
p408
S'LIDC-IDRI-0284'
p409
sS'187/014'
p410
S'LIDC-IDRI-0283'
p411
sS'187/071'
p412
S'LIDC-IDRI-0331'
p413
sS'188/049'
p414
S'LIDC-IDRI-0605'
p415
sS'185/106'
p416
S'LIDC-IDRI-0020'
p417
sS'188/048'
p418
S'LIDC-IDRI-0604'
p419
sS'186/070'
p420
S'LIDC-IDRI-0157'
p421
sS'186/071'
p422
S'LIDC-IDRI-0158'
p423
sS'186/074'
p424
S'LIDC-IDRI-0159'
p425
sS'186/076'
p426
S'LIDC-IDRI-0160'
p427
sS'186/078'
p428
S'LIDC-IDRI-0161'
p429
sS'186/079'
p430
S'LIDC-IDRI-0162'
p431
sS'187/070'
p432
S'LIDC-IDRI-0330'
p433
sS'186/179'
p434
S'LIDC-IDRI-0213'
p435
sS'185/098'
p436
S'LIDC-IDRI-0016'
p437
sS'186/171'
p438
S'LIDC-IDRI-0209'
p439
sS'186/173'
p440
S'LIDC-IDRI-0210'
p441
sS'186/175'
p442
S'LIDC-IDRI-0211'
p443
sS'186/177'
p444
S'LIDC-IDRI-0212'
p445
sS'185/129'
p446
S'LIDC-IDRI-0032'
p447
sS'187/126'
p448
S'LIDC-IDRI-0383'
p449
sS'187/125'
p450
S'LIDC-IDRI-0382'
p451
sS'187/124'
p452
S'LIDC-IDRI-0381'
p453
sS'187/123'
p454
S'LIDC-IDRI-0380'
p455
sS'187/122'
p456
S'LIDC-IDRI-0379'
p457
sS'187/121'
p458
S'LIDC-IDRI-0378'
p459
sS'187/120'
p460
S'LIDC-IDRI-0377'
p461
sS'185/121'
p462
S'LIDC-IDRI-0028'
p463
sS'189/133'
p464
S'LIDC-IDRI-0677'
p465
sS'185/123'
p466
S'LIDC-IDRI-0029'
p467
sS'189/038'
p468
S'LIDC-IDRI-0772'
p469
sS'189/136'
p470
S'LIDC-IDRI-0674'
p471
sS'189/137'
p472
S'LIDC-IDRI-0673'
p473
sS'185/127'
p474
S'LIDC-IDRI-0031'
p475
sS'187/128'
p476
S'LIDC-IDRI-0385'
p477
sS'188/018'
p478
S'LIDC-IDRI-0573'
p479
sS'188/150'
p480
S'LIDC-IDRI-0955'
p481
sS'188/153'
p482
S'LIDC-IDRI-0952'
p483
sS'188/152'
p484
S'LIDC-IDRI-0953'
p485
sS'188/155'
p486
S'LIDC-IDRI-0950'
p487
sS'188/154'
p488
S'LIDC-IDRI-0951'
p489
sS'188/157'
p490
S'LIDC-IDRI-0948'
p491
sS'188/156'
p492
S'LIDC-IDRI-0949'
p493
sS'188/010'
p494
S'LIDC-IDRI-0565'
p495
sS'188/158'
p496
S'LIDC-IDRI-0947'
p497
sS'188/012'
p498
S'LIDC-IDRI-0567'
p499
sS'188/013'
p500
S'LIDC-IDRI-0568'
p501
sS'188/014'
p502
S'LIDC-IDRI-0569'
p503
sS'188/015'
p504
S'LIDC-IDRI-0570'
p505
sS'188/016'
p506
S'LIDC-IDRI-0571'
p507
sS'188/017'
p508
S'LIDC-IDRI-0572'
p509
sS'186/283'
p510
S'LIDC-IDRI-0267'
p511
sS'187/134'
p512
S'LIDC-IDRI-0391'
p513
sS'186/281'
p514
S'LIDC-IDRI-0266'
p515
sS'189/144'
p516
S'LIDC-IDRI-0666'
p517
sS'186/287'
p518
S'LIDC-IDRI-0269'
p519
sS'188/078'
p520
S'LIDC-IDRI-0634'
p521
sS'186/284'
p522
S'LIDC-IDRI-0268'
p523
sS'186/288'
p524
S'LIDC-IDRI-0270'
p525
sS'187/136'
p526
S'LIDC-IDRI-0393'
p527
sS'188/045'
p528
S'LIDC-IDRI-0601'
p529
sS'188/076'
p530
S'LIDC-IDRI-0632'
p531
sS'187/137'
p532
S'LIDC-IDRI-0394'
p533
sS'188/077'
p534
S'LIDC-IDRI-0633'
p535
sS'187/130'
p536
S'LIDC-IDRI-0387'
p537
sS'185/255'
p538
S'LIDC-IDRI-0094'
p539
sS'188/074'
p540
S'LIDC-IDRI-0630'
p541
sS'188/020'
p542
S'LIDC-IDRI-0575'
p543
sS'188/075'
p544
S'LIDC-IDRI-0631'
p545
sS'187/268'
p546
S'LIDC-IDRI-0523'
p547
sS'187/269'
p548
S'LIDC-IDRI-0524'
p549
sS'187/264'
p550
S'LIDC-IDRI-0519'
p551
sS'187/265'
p552
S'LIDC-IDRI-0520'
p553
sS'187/266'
p554
S'LIDC-IDRI-0521'
p555
sS'187/267'
p556
S'LIDC-IDRI-0522'
p557
sS'187/260'
p558
S'LIDC-IDRI-0515'
p559
sS'187/261'
p560
S'LIDC-IDRI-0516'
p561
sS'187/262'
p562
S'LIDC-IDRI-0517'
p563
sS'187/263'
p564
S'LIDC-IDRI-0518'
p565
sS'186/203'
p566
S'LIDC-IDRI-0225'
p567
sS'188/072'
p568
S'LIDC-IDRI-0628'
p569
sS'189/149'
p570
S'LIDC-IDRI-0661'
p571
sS'189/148'
p572
S'LIDC-IDRI-0662'
p573
sS'189/147'
p574
S'LIDC-IDRI-0663'
p575
sS'189/146'
p576
S'LIDC-IDRI-0664'
p577
sS'189/145'
p578
S'LIDC-IDRI-0665'
p579
sS'188/178'
p580
S'LIDC-IDRI-0927'
p581
sS'189/143'
p582
S'LIDC-IDRI-0667'
p583
sS'189/142'
p584
S'LIDC-IDRI-0668'
p585
sS'189/141'
p586
S'LIDC-IDRI-0669'
p587
sS'189/140'
p588
S'LIDC-IDRI-0670'
p589
sS'186/200'
p590
S'LIDC-IDRI-0224'
p591
sS'186/246'
p592
S'LIDC-IDRI-0248'
p593
sS'187/138'
p594
S'LIDC-IDRI-0395'
p595
sS'186/235'
p596
S'LIDC-IDRI-0243'
p597
sS'186/206'
p598
S'LIDC-IDRI-0227'
p599
sS'185/275'
p600
S'LIDC-IDRI-0104'
p601
sS'185/277'
p602
S'LIDC-IDRI-0105'
p603
sS'186/205'
p604
S'LIDC-IDRI-0226'
p605
sS'185/272'
p606
S'LIDC-IDRI-0103'
p607
sS'185/278'
p608
S'LIDC-IDRI-0106'
p609
sS'186/210'
p610
S'LIDC-IDRI-0229'
p611
sS'186/213'
p612
S'LIDC-IDRI-0230'
p613
sS'186/214'
p614
S'LIDC-IDRI-0231'
p615
sS'186/216'
p616
S'LIDC-IDRI-0232'
p617
sS'186/217'
p618
S'LIDC-IDRI-0233'
p619
sS'188/006'
p620
S'LIDC-IDRI-0561'
p621
sS'187/196'
p622
S'LIDC-IDRI-0452'
p623
sS'187/197'
p624
S'LIDC-IDRI-0453'
p625
sS'187/194'
p626
S'LIDC-IDRI-0450'
p627
sS'187/195'
p628
S'LIDC-IDRI-0451'
p629
sS'187/192'
p630
S'LIDC-IDRI-0448'
p631
sS'187/193'
p632
S'LIDC-IDRI-0449'
p633
sS'187/190'
p634
S'LIDC-IDRI-0446'
p635
sS'187/191'
p636
S'LIDC-IDRI-0447'
p637
sS'187/046'
p638
S'LIDC-IDRI-0307'
p639
sS'187/198'
p640
S'LIDC-IDRI-0454'
p641
sS'187/199'
p642
S'LIDC-IDRI-0455'
p643
sS'187/047'
p644
S'LIDC-IDRI-0308'
p645
sS'187/040'
p646
S'LIDC-IDRI-0301'
p647
sS'187/041'
p648
S'LIDC-IDRI-0302'
p649
sS'188/209'
p650
S'LIDC-IDRI-0896'
p651
sS'188/208'
p652
S'LIDC-IDRI-0897'
p653
sS'186/248'
p654
S'LIDC-IDRI-0249'
p655
sS'187/042'
p656
S'LIDC-IDRI-0303'
p657
sS'188/082'
p658
S'LIDC-IDRI-1012'
p659
sS'188/201'
p660
S'LIDC-IDRI-0904'
p661
sS'188/200'
p662
S'LIDC-IDRI-0905'
p663
sS'188/203'
p664
S'LIDC-IDRI-0902'
p665
sS'188/202'
p666
S'LIDC-IDRI-0903'
p667
sS'188/205'
p668
S'LIDC-IDRI-0900'
p669
sS'188/204'
p670
S'LIDC-IDRI-0901'
p671
sS'188/207'
p672
S'LIDC-IDRI-0898'
p673
sS'188/206'
p674
S'LIDC-IDRI-0899'
p675
sS'188/081'
p676
S'LIDC-IDRI-0637'
p677
sS'188/080'
p678
S'LIDC-IDRI-0636'
p679
sS'188/087'
p680
S'LIDC-IDRI-1011'
p681
sS'189/134'
p682
S'LIDC-IDRI-0676'
p683
sS'186/135'
p684
S'LIDC-IDRI-0191'
p685
sS'186/134'
p686
S'LIDC-IDRI-0190'
p687
sS'186/137'
p688
S'LIDC-IDRI-0192'
p689
sS'186/131'
p690
S'LIDC-IDRI-0189'
p691
sS'186/130'
p692
S'LIDC-IDRI-0188'
p693
sS'187/049'
p694
S'LIDC-IDRI-0310'
p695
sS'185/169'
p696
S'LIDC-IDRI-0052'
p697
sS'189/157'
p698
S'LIDC-IDRI-0653'
p699
sS'185/165'
p700
S'LIDC-IDRI-0050'
p701
sS'185/167'
p702
S'LIDC-IDRI-0051'
p703
sS'185/161'
p704
S'LIDC-IDRI-0048'
p705
sS'185/163'
p706
S'LIDC-IDRI-0049'
p707
sS'187/044'
p708
S'LIDC-IDRI-0305'
p709
sS'187/045'
p710
S'LIDC-IDRI-0306'
p711
sS'187/169'
p712
S'LIDC-IDRI-0426'
p713
sS'187/168'
p714
S'LIDC-IDRI-0425'
p715
sS'188/111'
p716
S'LIDC-IDRI-0994'
p717
sS'188/110'
p718
S'LIDC-IDRI-0995'
p719
sS'188/113'
p720
S'LIDC-IDRI-0992'
p721
sS'188/112'
p722
S'LIDC-IDRI-0993'
p723
sS'187/163'
p724
S'LIDC-IDRI-0420'
p725
sS'187/162'
p726
S'LIDC-IDRI-0419'
p727
sS'187/161'
p728
S'LIDC-IDRI-0418'
p729
sS'187/160'
p730
S'LIDC-IDRI-0417'
p731
sS'187/048'
p732
S'LIDC-IDRI-0309'
p733
sS'187/166'
p734
S'LIDC-IDRI-0423'
p735
sS'187/165'
p736
S'LIDC-IDRI-0422'
p737
sS'187/164'
p738
S'LIDC-IDRI-0421'
p739
sS'188/298'
p740
S'LIDC-IDRI-0807'
p741
sS'188/299'
p742
S'LIDC-IDRI-0806'
p743
sS'188/296'
p744
S'LIDC-IDRI-0809'
p745
sS'188/297'
p746
S'LIDC-IDRI-0808'
p747
sS'188/294'
p748
S'LIDC-IDRI-0811'
p749
sS'188/295'
p750
S'LIDC-IDRI-0810'
p751
sS'188/292'
p752
S'LIDC-IDRI-0813'
p753
sS'188/293'
p754
S'LIDC-IDRI-0812'
p755
sS'188/290'
p756
S'LIDC-IDRI-0815'
p757
sS'188/291'
p758
S'LIDC-IDRI-0814'
p759
sS'187/135'
p760
S'LIDC-IDRI-0392'
p761
sS'185/253'
p762
S'LIDC-IDRI-0093'
p763
sS'185/178'
p764
S'LIDC-IDRI-0057'
p765
sS'188/007'
p766
S'LIDC-IDRI-0562'
p767
sS'186/009'
p768
S'LIDC-IDRI-0124'
p769
sS'187/221'
p770
S'LIDC-IDRI-0477'
p771
sS'187/222'
p772
S'LIDC-IDRI-0478'
p773
sS'187/223'
p774
S'LIDC-IDRI-0479'
p775
sS'187/224'
p776
S'LIDC-IDRI-0480'
p777
sS'187/225'
p778
S'LIDC-IDRI-0481'
p779
sS'187/226'
p780
S'LIDC-IDRI-0482'
p781
sS'187/227'
p782
S'LIDC-IDRI-0483'
p783
sS'187/228'
p784
S'LIDC-IDRI-0484'
p785
sS'186/000'
p786
S'LIDC-IDRI-0119'
p787
sS'186/003'
p788
S'LIDC-IDRI-0120'
p789
sS'186/004'
p790
S'LIDC-IDRI-0121'
p791
sS'186/007'
p792
S'LIDC-IDRI-0123'
p793
sS'186/006'
p794
S'LIDC-IDRI-0122'
p795
sS'189/103'
p796
S'LIDC-IDRI-0707'
p797
sS'189/102'
p798
S'LIDC-IDRI-0708'
p799
sS'189/101'
p800
S'LIDC-IDRI-0709'
p801
sS'189/100'
p802
S'LIDC-IDRI-0710'
p803
sS'189/107'
p804
S'LIDC-IDRI-0703'
p805
sS'189/106'
p806
S'LIDC-IDRI-0704'
p807
sS'189/105'
p808
S'LIDC-IDRI-0705'
p809
sS'187/188'
p810
S'LIDC-IDRI-0444'
p811
sS'189/109'
p812
S'LIDC-IDRI-0701'
p813
sS'189/108'
p814
S'LIDC-IDRI-0702'
p815
sS'188/061'
p816
S'LIDC-IDRI-0617'
p817
sS'188/060'
p818
S'LIDC-IDRI-0616'
p819
sS'188/063'
p820
S'LIDC-IDRI-0619'
p821
sS'188/062'
p822
S'LIDC-IDRI-0618'
p823
sS'188/065'
p824
S'LIDC-IDRI-0621'
p825
sS'188/064'
p826
S'LIDC-IDRI-0620'
p827
sS'188/067'
p828
S'LIDC-IDRI-0623'
p829
sS'188/066'
p830
S'LIDC-IDRI-0622'
p831
sS'188/069'
p832
S'LIDC-IDRI-0625'
p833
sS'188/068'
p834
S'LIDC-IDRI-0624'
p835
sS'189/066'
p836
S'LIDC-IDRI-0744'
p837
sS'189/067'
p838
S'LIDC-IDRI-0743'
p839
sS'189/060'
p840
S'LIDC-IDRI-0750'
p841
sS'189/061'
p842
S'LIDC-IDRI-0749'
p843
sS'189/062'
p844
S'LIDC-IDRI-0748'
p845
sS'189/063'
p846
S'LIDC-IDRI-0747'
p847
sS'157/158'
p848
S'LIDC-IDRI-0078'
p849
sS'189/069'
p850
S'LIDC-IDRI-0741'
p851
sS'188/047'
p852
S'LIDC-IDRI-0603'
p853
sS'187/295'
p854
S'LIDC-IDRI-0550'
p855
sS'187/294'
p856
S'LIDC-IDRI-0549'
p857
sS'187/297'
p858
S'LIDC-IDRI-0552'
p859
sS'187/182'
p860
S'LIDC-IDRI-0439'
p861
sS'187/291'
p862
S'LIDC-IDRI-0546'
p863
sS'187/290'
p864
S'LIDC-IDRI-0545'
p865
sS'187/293'
p866
S'LIDC-IDRI-0548'
p867
sS'186/099'
p868
S'LIDC-IDRI-0172'
p869
sS'186/096'
p870
S'LIDC-IDRI-0170'
p871
sS'186/097'
p872
S'LIDC-IDRI-0171'
p873
sS'189/068'
p874
S'LIDC-IDRI-0742'
p875
sS'187/299'
p876
S'LIDC-IDRI-0554'
p877
sS'186/093'
p878
S'LIDC-IDRI-0169'
p879
sS'186/090'
p880
S'LIDC-IDRI-0167'
p881
sS'186/091'
p882
S'LIDC-IDRI-0168'
p883
sS'188/046'
p884
S'LIDC-IDRI-0602'
p885
sS'185/188'
p886
S'LIDC-IDRI-0058'
p887
sS'187/093'
p888
S'LIDC-IDRI-0352'
p889
sS'187/092'
p890
S'LIDC-IDRI-0351'
p891
sS'187/091'
p892
S'LIDC-IDRI-0350'
p893
sS'187/090'
p894
S'LIDC-IDRI-0349'
p895
sS'187/097'
p896
S'LIDC-IDRI-0355'
p897
sS'187/096'
p898
S'LIDC-IDRI-0355'
p899
sS'187/095'
p900
S'LIDC-IDRI-0354'
p901
sS'187/094'
p902
S'LIDC-IDRI-0353'
p903
sS'187/099'
p904
S'LIDC-IDRI-0357'
p905
sS'187/098'
p906
S'LIDC-IDRI-0356'
p907
sS'187/292'
p908
S'LIDC-IDRI-0547'
p909
sS'188/249'
p910
S'LIDC-IDRI-0856'
p911
sS'188/248'
p912
S'LIDC-IDRI-0857'
p913
sS'188/245'
p914
S'LIDC-IDRI-0860'
p915
sS'188/244'
p916
S'LIDC-IDRI-0861'
p917
sS'188/247'
p918
S'LIDC-IDRI-0858'
p919
sS'188/246'
p920
S'LIDC-IDRI-0859'
p921
sS'188/241'
p922
S'LIDC-IDRI-0864'
p923
sS'188/023'
p924
S'LIDC-IDRI-0578'
p925
sS'188/243'
p926
S'LIDC-IDRI-0862'
p927
sS'188/242'
p928
S'LIDC-IDRI-0863'
p929
sS'186/261'
p930
S'LIDC-IDRI-0256'
p931
sS'187/220'
p932
S'LIDC-IDRI-0476'
p933
sS'186/264'
p934
S'LIDC-IDRI-0257'
p935
sS'185/228'
p936
S'LIDC-IDRI-0080'
p937
sS'186/266'
p938
S'LIDC-IDRI-0258'
p939
sS'186/268'
p940
S'LIDC-IDRI-0259'
p941
sS'185/224'
p942
S'LIDC-IDRI-0077'
p943
sS'185/223'
p944
S'LIDC-IDRI-0076'
p945
sS'185/220'
p946
S'LIDC-IDRI-0075'
p947
sS'186/193'
p948
S'LIDC-IDRI-0220'
p949
sS'188/189'
p950
S'LIDC-IDRI-0916'
p951
sS'188/022'
p952
S'LIDC-IDRI-0577'
p953
sS'186/191'
p954
S'LIDC-IDRI-0219'
p955
sS'188/266'
p956
S'LIDC-IDRI-0839'
p957
sS'186/197'
p958
S'LIDC-IDRI-0222'
p959
sS'186/015'
p960
S'LIDC-IDRI-0128'
p961
sS'188/091'
p962
S'LIDC-IDRI-1010'
p963
sS'188/094'
p964
S'LIDC-IDRI-1009'
p965
sS'186/195'
p966
S'LIDC-IDRI-0221'
p967
sS'188/097'
p968
S'LIDC-IDRI-1008'
p969
sS'188/098'
p970
S'LIDC-IDRI-1007'
p971
sS'188/099'
p972
S'LIDC-IDRI-1006'
p973
sS'187/256'
p974
S'LIDC-IDRI-0511'
p975
sS'188/009'
p976
S'LIDC-IDRI-0564'
p977
sS'188/180'
p978
S'LIDC-IDRI-0925'
p979
sS'187/008'
p980
S'LIDC-IDRI-0280'
p981
sS'188/181'
p982
S'LIDC-IDRI-0924'
p983
sS'187/000'
p984
S'LIDC-IDRI-0276'
p985
sS'187/003'
p986
S'LIDC-IDRI-0277'
p987
sS'187/004'
p988
S'LIDC-IDRI-0278'
p989
sS'187/007'
p990
S'LIDC-IDRI-0279'
p991
sS'189/004'
p992
S'LIDC-IDRI-0801'
p993
sS'189/091'
p994
S'LIDC-IDRI-0719'
p995
sS'188/185'
p996
S'LIDC-IDRI-0920'
p997
sS'189/090'
p998
S'LIDC-IDRI-0720'
p999
sS'186/167'
p1000
S'LIDC-IDRI-0207'
p1001
sS'186/164'
p1002
S'LIDC-IDRI-0205'
p1003
sS'186/165'
p1004
S'LIDC-IDRI-0206'
p1005
sS'186/049'
p1006
S'LIDC-IDRI-0146'
p1007
sS'186/048'
p1008
S'LIDC-IDRI-0145'
p1009
sS'186/160'
p1010
S'LIDC-IDRI-0203'
p1011
sS'186/161'
p1012
S'LIDC-IDRI-0204'
p1013
sS'186/044'
p1014
S'LIDC-IDRI-0143'
p1015
sS'186/046'
p1016
S'LIDC-IDRI-0144'
p1017
sS'188/130'
p1018
S'LIDC-IDRI-0975'
p1019
sS'186/168'
p1020
S'LIDC-IDRI-0208'
p1021
sS'189/005'
p1022
S'LIDC-IDRI-0800'
p1023
sS'185/136'
p1024
S'LIDC-IDRI-0036'
p1025
sS'185/134'
p1026
S'LIDC-IDRI-0035'
p1027
sS'186/244'
p1028
S'LIDC-IDRI-0247'
p1029
sS'185/133'
p1030
S'LIDC-IDRI-0034'
p1031
sS'185/131'
p1032
S'LIDC-IDRI-0033'
p1033
sS'185/138'
p1034
S'LIDC-IDRI-0037'
p1035
sS'188/115'
p1036
S'LIDC-IDRI-0990'
p1037
sS'188/025'
p1038
S'LIDC-IDRI-0580'
p1039
sS'188/024'
p1040
S'LIDC-IDRI-0579'
p1041
sS'188/027'
p1042
S'LIDC-IDRI-0582'
p1043
sS'188/026'
p1044
S'LIDC-IDRI-0581'
p1045
sS'188/021'
p1046
S'LIDC-IDRI-0576'
p1047
sS'189/025'
p1048
S'LIDC-IDRI-0780'
p1049
sS'189/026'
p1050
S'LIDC-IDRI-0779'
p1051
sS'189/027'
p1052
S'LIDC-IDRI-0778'
p1053
sS'189/028'
p1054
S'LIDC-IDRI-0777'
p1055
sS'189/099'
p1056
S'LIDC-IDRI-0711'
p1057
sS'189/104'
p1058
S'LIDC-IDRI-0706'
p1059
sS'188/029'
p1060
S'LIDC-IDRI-0584'
p1061
sS'188/028'
p1062
S'LIDC-IDRI-0583'
p1063
sS'189/151'
p1064
S'LIDC-IDRI-0659'
p1065
sS'188/148'
p1066
S'LIDC-IDRI-0957'
p1067
sS'188/149'
p1068
S'LIDC-IDRI-0956'
p1069
sS'188/146'
p1070
S'LIDC-IDRI-0959'
p1071
sS'188/147'
p1072
S'LIDC-IDRI-0958'
p1073
sS'188/144'
p1074
S'LIDC-IDRI-0961'
p1075
sS'188/145'
p1076
S'LIDC-IDRI-0960'
p1077
sS'188/142'
p1078
S'LIDC-IDRI-0963'
p1079
sS'188/143'
p1080
S'LIDC-IDRI-0962'
p1081
sS'188/140'
p1082
S'LIDC-IDRI-0965'
p1083
sS'188/141'
p1084
S'LIDC-IDRI-0964'
p1085
sS'186/291'
p1086
S'LIDC-IDRI-0271'
p1087
sS'186/293'
p1088
S'LIDC-IDRI-0272'
p1089
sS'186/294'
p1090
S'LIDC-IDRI-0273'
p1091
sS'186/297'
p1092
S'LIDC-IDRI-0274'
p1093
sS'186/298'
p1094
S'LIDC-IDRI-0275'
p1095
sS'188/117'
p1096
S'LIDC-IDRI-0988'
p1097
sS'187/259'
p1098
S'LIDC-IDRI-0514'
p1099
sS'187/258'
p1100
S'LIDC-IDRI-0513'
p1101
sS'186/199'
p1102
S'LIDC-IDRI-0223'
p1103
sS'187/251'
p1104
S'LIDC-IDRI-0506'
p1105
sS'187/250'
p1106
S'LIDC-IDRI-0505'
p1107
sS'187/253'
p1108
S'LIDC-IDRI-0508'
p1109
sS'187/252'
p1110
S'LIDC-IDRI-0507'
p1111
sS'187/255'
p1112
S'LIDC-IDRI-0510'
p1113
sS'187/254'
p1114
S'LIDC-IDRI-0509'
p1115
sS'187/257'
p1116
S'LIDC-IDRI-0512'
p1117
sS'187/139'
p1118
S'LIDC-IDRI-0396'
p1119
sS'189/095'
p1120
S'LIDC-IDRI-0715'
p1121
sS'189/094'
p1122
S'LIDC-IDRI-0716'
p1123
sS'189/097'
p1124
S'LIDC-IDRI-0713'
p1125
sS'189/096'
p1126
S'LIDC-IDRI-0714'
p1127
sS'189/158'
p1128
S'LIDC-IDRI-0652'
p1129
sS'189/159'
p1130
S'LIDC-IDRI-0651'
p1131
sS'189/093'
p1132
S'LIDC-IDRI-0717'
p1133
sS'189/092'
p1134
S'LIDC-IDRI-0718'
p1135
sS'189/154'
p1136
S'LIDC-IDRI-0656'
p1137
sS'189/155'
p1138
S'LIDC-IDRI-0655'
p1139
sS'189/156'
p1140
S'LIDC-IDRI-0654'
p1141
sS'187/131'
p1142
S'LIDC-IDRI-0388'
p1143
sS'189/150'
p1144
S'LIDC-IDRI-0660'
p1145
sS'189/098'
p1146
S'LIDC-IDRI-0712'
p1147
sS'189/152'
p1148
S'LIDC-IDRI-0658'
p1149
sS'189/153'
p1150
S'LIDC-IDRI-0657'
p1151
sS'187/127'
p1152
S'LIDC-IDRI-0384'
p1153
sS'189/021'
p1154
S'LIDC-IDRI-0784'
p1155
sS'189/138'
p1156
S'LIDC-IDRI-0672'
p1157
sS'185/117'
p1158
S'LIDC-IDRI-0026'
p1159
sS'185/262'
p1160
S'LIDC-IDRI-0097'
p1161
sS'189/064'
p1162
S'LIDC-IDRI-0746'
p1163
sS'189/139'
p1164
S'LIDC-IDRI-0671'
p1165
sS'185/266'
p1166
S'LIDC-IDRI-0099'
p1167
sS'186/220'
p1168
S'LIDC-IDRI-0234'
p1169
sS'189/065'
p1170
S'LIDC-IDRI-0745'
p1171
sS'189/037'
p1172
S'LIDC-IDRI-0773'
p1173
sS'185/268'
p1174
S'LIDC-IDRI-0100'
p1175
sS'186/229'
p1176
S'LIDC-IDRI-0240'
p1177
sS'186/228'
p1178
S'LIDC-IDRI-0239'
p1179
sS'189/036'
p1180
S'LIDC-IDRI-0774'
p1181
sS'186/225'
p1182
S'LIDC-IDRI-0237'
p1183
sS'189/035'
p1184
S'LIDC-IDRI-0775'
p1185
sS'185/263'
p1186
S'LIDC-IDRI-0098'
p1187
sS'189/034'
p1188
S'LIDC-IDRI-0776'
p1189
sS'189/132'
p1190
S'LIDC-IDRI-0678'
p1191
sS'189/039'
p1192
S'LIDC-IDRI-0771'
p1193
sS'187/209'
p1194
S'LIDC-IDRI-0465'
p1195
sS'189/131'
p1196
S'LIDC-IDRI-0679'
p1197
sS'185/125'
p1198
S'LIDC-IDRI-0030'
p1199
sS'186/222'
p1200
S'LIDC-IDRI-0235'
p1201
sS'188/216'
p1202
S'LIDC-IDRI-0889'
p1203
sS'188/217'
p1204
S'LIDC-IDRI-0888'
p1205
sS'188/214'
p1206
S'LIDC-IDRI-0891'
p1207
sS'188/215'
p1208
S'LIDC-IDRI-0890'
p1209
sS'188/212'
p1210
S'LIDC-IDRI-0893'
p1211
sS'188/213'
p1212
S'LIDC-IDRI-0892'
p1213
sS'188/210'
p1214
S'LIDC-IDRI-0895'
p1215
sS'188/211'
p1216
S'LIDC-IDRI-0894'
p1217
sS'188/195'
p1218
S'LIDC-IDRI-0910'
p1219
sS'188/194'
p1220
S'LIDC-IDRI-0911'
p1221
sS'188/197'
p1222
S'LIDC-IDRI-0908'
p1223
sS'189/135'
p1224
S'LIDC-IDRI-0675'
p1225
sS'188/191'
p1226
S'LIDC-IDRI-0914'
p1227
sS'188/190'
p1228
S'LIDC-IDRI-0915'
p1229
sS'188/193'
p1230
S'LIDC-IDRI-0912'
p1231
sS'188/219'
p1232
S'LIDC-IDRI-0886'
p1233
sS'185/216'
p1234
S'LIDC-IDRI-0073'
p1235
sS'185/215'
p1236
S'LIDC-IDRI-0072'
p1237
sS'185/212'
p1238
S'LIDC-IDRI-0071'
p1239
sS'188/019'
p1240
S'LIDC-IDRI-0574'
p1241
sS'185/218'
p1242
S'LIDC-IDRI-0074'
p1243
sS'187/043'
p1244
S'LIDC-IDRI-0304'
p1245
sS'188/262'
p1246
S'LIDC-IDRI-0843'
p1247
sS'186/129'
p1248
S'LIDC-IDRI-0187'
p1249
sS'187/167'
p1250
S'LIDC-IDRI-0424'
p1251
sS'186/123'
p1252
S'LIDC-IDRI-0184'
p1253
sS'186/120'
p1254
S'LIDC-IDRI-0183'
p1255
sS'189/008'
p1256
S'LIDC-IDRI-0797'
p1257
sS'186/124'
p1258
S'LIDC-IDRI-0185'
p1259
sS'188/159'
p1260
S'LIDC-IDRI-0946'
p1261
sS'185/071'
p1262
S'LIDC-IDRI-0002'
p1263
sS'189/009'
p1264
S'LIDC-IDRI-0796'
p1265
sS'185/076'
p1266
S'LIDC-IDRI-0005'
p1267
sS'188/011'
p1268
S'LIDC-IDRI-0566'
p1269
sS'185/172'
p1270
S'LIDC-IDRI-0054'
p1271
sS'185/171'
p1272
S'LIDC-IDRI-0053'
p1273
sS'185/177'
p1274
S'LIDC-IDRI-0056'
p1275
sS'185/174'
p1276
S'LIDC-IDRI-0055'
p1277
sS'187/178'
p1278
S'LIDC-IDRI-0435'
p1279
sS'188/103'
p1280
S'LIDC-IDRI-1002'
p1281
sS'188/100'
p1282
S'LIDC-IDRI-1005'
p1283
sS'188/101'
p1284
S'LIDC-IDRI-1004'
p1285
sS'188/106'
p1286
S'LIDC-IDRI-0999'
p1287
sS'188/107'
p1288
S'LIDC-IDRI-0998'
p1289
sS'188/104'
p1290
S'LIDC-IDRI-1001'
p1291
sS'187/076'
p1292
S'LIDC-IDRI-0335'
p1293
sS'187/170'
p1294
S'LIDC-IDRI-0427'
p1295
sS'187/171'
p1296
S'LIDC-IDRI-0428'
p1297
sS'188/108'
p1298
S'LIDC-IDRI-0997'
p1299
sS'187/173'
p1300
S'LIDC-IDRI-0430'
p1301
sS'187/174'
p1302
S'LIDC-IDRI-0431'
p1303
sS'187/175'
p1304
S'LIDC-IDRI-0432'
p1305
sS'187/176'
p1306
S'LIDC-IDRI-0433'
p1307
sS'187/177'
p1308
S'LIDC-IDRI-0434'
p1309
sS'189/002'
p1310
S'LIDC-IDRI-0803'
p1311
sS'186/019'
p1312
S'LIDC-IDRI-0130'
p1313
sS'189/003'
p1314
S'LIDC-IDRI-0802'
p1315
sS'189/000'
p1316
S'LIDC-IDRI-0805'
p1317
sS'187/140'
p1318
S'LIDC-IDRI-0397'
p1319
sS'186/017'
p1320
S'LIDC-IDRI-0129'
p1321
sS'189/001'
p1322
S'LIDC-IDRI-0804'
p1323
sS'186/012'
p1324
S'LIDC-IDRI-0126'
p1325
sS'186/011'
p1326
S'LIDC-IDRI-0125'
p1327
sS'189/006'
p1328
S'LIDC-IDRI-0799'
p1329
sS'189/007'
p1330
S'LIDC-IDRI-0798'
p1331
sS'189/018'
p1332
S'LIDC-IDRI-0787'
p1333
sS'188/116'
p1334
S'LIDC-IDRI-0989'
p1335
sS'187/219'
p1336
S'LIDC-IDRI-0475'
p1337
sS'187/218'
p1338
S'LIDC-IDRI-0474'
p1339
sS'187/215'
p1340
S'LIDC-IDRI-0471'
p1341
sS'187/214'
p1342
S'LIDC-IDRI-0470'
p1343
sS'187/217'
p1344
S'LIDC-IDRI-0473'
p1345
sS'187/216'
p1346
S'LIDC-IDRI-0472'
p1347
sS'187/211'
p1348
S'LIDC-IDRI-0467'
p1349
sS'187/210'
p1350
S'LIDC-IDRI-0466'
p1351
sS'187/213'
p1352
S'LIDC-IDRI-0469'
p1353
sS'187/212'
p1354
S'LIDC-IDRI-0468'
p1355
sS'189/110'
p1356
S'LIDC-IDRI-0700'
p1357
sS'189/111'
p1358
S'LIDC-IDRI-0699'
p1359
sS'189/112'
p1360
S'LIDC-IDRI-0698'
p1361
sS'189/113'
p1362
S'LIDC-IDRI-0697'
p1363
sS'189/114'
p1364
S'LIDC-IDRI-0696'
p1365
sS'187/132'
p1366
S'LIDC-IDRI-0389'
p1367
sS'189/116'
p1368
S'LIDC-IDRI-0694'
p1369
sS'189/117'
p1370
S'LIDC-IDRI-0693'
p1371
sS'189/118'
p1372
S'LIDC-IDRI-0692'
p1373
sS'189/119'
p1374
S'LIDC-IDRI-0691'
p1375
sS'185/103'
p1376
S'LIDC-IDRI-0019'
p1377
sS'185/102'
p1378
S'LIDC-IDRI-0018'
p1379
sS'188/183'
p1380
S'LIDC-IDRI-0922'
p1381
sS'185/100'
p1382
S'LIDC-IDRI-0017'
p1383
sS'189/059'
p1384
S'LIDC-IDRI-0751'
p1385
sS'189/058'
p1386
S'LIDC-IDRI-0752'
p1387
sS'188/175'
p1388
S'LIDC-IDRI-0930'
p1389
sS'188/174'
p1390
S'LIDC-IDRI-0931'
p1391
sS'188/173'
p1392
S'LIDC-IDRI-0932'
p1393
sS'188/172'
p1394
S'LIDC-IDRI-0933'
p1395
sS'188/171'
p1396
S'LIDC-IDRI-0934'
p1397
sS'188/170'
p1398
S'LIDC-IDRI-0935'
p1399
sS'189/051'
p1400
S'LIDC-IDRI-0759'
p1401
sS'189/050'
p1402
S'LIDC-IDRI-0760'
p1403
sS'189/053'
p1404
S'LIDC-IDRI-0757'
p1405
sS'189/052'
p1406
S'LIDC-IDRI-0758'
p1407
sS'189/055'
p1408
S'LIDC-IDRI-0755'
p1409
sS'189/054'
p1410
S'LIDC-IDRI-0756'
p1411
sS'188/179'
p1412
S'LIDC-IDRI-0926'
p1413
sS'189/056'
p1414
S'LIDC-IDRI-0754'
p1415
sS'187/149'
p1416
S'LIDC-IDRI-0406'
p1417
sS'188/119'
p1418
S'LIDC-IDRI-0986'
p1419
sS'188/120'
p1420
S'LIDC-IDRI-0985'
p1421
sS'187/296'
p1422
S'LIDC-IDRI-0551'
p1423
sS'188/288'
p1424
S'LIDC-IDRI-0817'
p1425
sS'188/073'
p1426
S'LIDC-IDRI-0629'
p1427
sS'187/282'
p1428
S'LIDC-IDRI-0537'
p1429
sS'187/283'
p1430
S'LIDC-IDRI-0538'
p1431
sS'187/280'
p1432
S'LIDC-IDRI-0535'
p1433
sS'187/281'
p1434
S'LIDC-IDRI-0536'
p1435
sS'187/286'
p1436
S'LIDC-IDRI-0541'
p1437
sS'188/118'
p1438
S'LIDC-IDRI-0987'
p1439
sS'187/284'
p1440
S'LIDC-IDRI-0539'
p1441
sS'187/133'
p1442
S'LIDC-IDRI-0390'
p1443
sS'189/048'
p1444
S'LIDC-IDRI-0762'
p1445
sS'187/288'
p1446
S'LIDC-IDRI-0543'
p1447
sS'187/289'
p1448
S'LIDC-IDRI-0544'
p1449
sS'185/194'
p1450
S'LIDC-IDRI-0061'
p1451
sS'185/195'
p1452
S'LIDC-IDRI-0062'
p1453
sS'185/197'
p1454
S'LIDC-IDRI-0063'
p1455
sS'185/190'
p1456
S'LIDC-IDRI-0059'
p1457
sS'185/191'
p1458
S'LIDC-IDRI-0060'
p1459
sS'188/070'
p1460
S'LIDC-IDRI-0626'
p1461
sS'185/199'
p1462
S'LIDC-IDRI-0064'
p1463
sS'187/080'
p1464
S'LIDC-IDRI-0339'
p1465
sS'187/081'
p1466
S'LIDC-IDRI-0340'
p1467
sS'187/082'
p1468
S'LIDC-IDRI-0341'
p1469
sS'187/083'
p1470
S'LIDC-IDRI-0342'
p1471
sS'187/084'
p1472
S'LIDC-IDRI-0343'
p1473
sS'187/085'
p1474
S'LIDC-IDRI-0344'
p1475
sS'187/086'
p1476
S'LIDC-IDRI-0345'
p1477
sS'187/087'
p1478
S'LIDC-IDRI-0346'
p1479
sS'187/088'
p1480
S'LIDC-IDRI-0347'
p1481
sS'187/089'
p1482
S'LIDC-IDRI-0348'
p1483
sS'187/298'
p1484
S'LIDC-IDRI-0553'
p1485
sS'188/258'
p1486
S'LIDC-IDRI-0847'
p1487
sS'188/259'
p1488
S'LIDC-IDRI-0846'
p1489
sS'188/071'
p1490
S'LIDC-IDRI-0627'
p1491
sS'188/252'
p1492
S'LIDC-IDRI-0853'
p1493
sS'188/253'
p1494
S'LIDC-IDRI-0852'
p1495
sS'188/250'
p1496
S'LIDC-IDRI-0855'
p1497
sS'188/251'
p1498
S'LIDC-IDRI-0854'
p1499
sS'188/256'
p1500
S'LIDC-IDRI-0849'
p1501
sS'188/257'
p1502
S'LIDC-IDRI-0848'
p1503
sS'188/254'
p1504
S'LIDC-IDRI-0851'
p1505
sS'188/255'
p1506
S'LIDC-IDRI-0850'
p1507
sS'185/259'
p1508
S'LIDC-IDRI-0096'
p1509
sS'186/279'
p1510
S'LIDC-IDRI-0265'
p1511
sS'186/276'
p1512
S'LIDC-IDRI-0264'
p1513
sS'185/252'
p1514
S'LIDC-IDRI-0092'
p1515
sS'186/042'
p1516
S'LIDC-IDRI-0142'
p1517
sS'185/257'
p1518
S'LIDC-IDRI-0095'
p1519
sS'186/273'
p1520
S'LIDC-IDRI-0262'
p1521
sS'186/270'
p1522
S'LIDC-IDRI-0260'
p1523
sS'185/118'
p1524
S'LIDC-IDRI-0027'
p1525
sS'189/073'
p1526
S'LIDC-IDRI-0737'
p1527
sS'187/035'
p1528
S'LIDC-IDRI-0296'
p1529
sS'187/034'
p1530
S'LIDC-IDRI-0295'
p1531
sS'187/037'
p1532
S'LIDC-IDRI-0298'
p1533
sS'187/036'
p1534
S'LIDC-IDRI-0297'
p1535
sS'187/031'
p1536
S'LIDC-IDRI-0292'
p1537
sS'187/030'
p1538
S'LIDC-IDRI-0291'
p1539
sS'187/033'
p1540
S'LIDC-IDRI-0294'
p1541
sS'187/032'
p1542
S'LIDC-IDRI-0293'
p1543
sS'187/039'
p1544
S'LIDC-IDRI-0300'
p1545
sS'187/038'
p1546
S'LIDC-IDRI-0299'
p1547
sS'188/229'
p1548
S'LIDC-IDRI-0876'
p1549
sS'188/228'
p1550
S'LIDC-IDRI-0877'
p1551
sS'188/227'
p1552
S'LIDC-IDRI-0878'
p1553
sS'188/226'
p1554
S'LIDC-IDRI-0879'
p1555
sS'188/225'
p1556
S'LIDC-IDRI-0880'
p1557
sS'188/224'
p1558
S'LIDC-IDRI-0881'
p1559
sS'188/223'
p1560
S'LIDC-IDRI-0882'
p1561
sS'188/222'
p1562
S'LIDC-IDRI-0883'
p1563
sS'188/221'
p1564
S'LIDC-IDRI-0884'
p1565
sS'188/220'
p1566
S'LIDC-IDRI-0885'
p1567
sS'185/113'
p1568
S'LIDC-IDRI-0024'
p1569
sS'188/199'
p1570
S'LIDC-IDRI-0906'
p1571
sS'187/236'
p1572
S'LIDC-IDRI-0491'
p1573
sS'186/113'
p1574
S'LIDC-IDRI-0179'
p1575
sS'186/111'
p1576
S'LIDC-IDRI-0178'
p1577
sS'186/059'
p1578
S'LIDC-IDRI-0151'
p1579
sS'186/117'
p1580
S'LIDC-IDRI-0181'
p1581
sS'186/116'
p1582
S'LIDC-IDRI-0180'
p1583
sS'188/151'
p1584
S'LIDC-IDRI-0954'
p1585
sS'189/024'
p1586
S'LIDC-IDRI-0781'
p1587
sS'186/052'
p1588
S'LIDC-IDRI-0147'
p1589
sS'186/119'
p1590
S'LIDC-IDRI-0182'
p1591
sS'187/287'
p1592
S'LIDC-IDRI-0542'
p1593
sS'186/056'
p1594
S'LIDC-IDRI-0149'
p1595
sS'187/229'
p1596
S'LIDC-IDRI-0484'
p1597
sS'185/092'
p1598
S'LIDC-IDRI-0013'
p1599
sS'185/143'
p1600
S'LIDC-IDRI-0039'
p1601
sS'185/140'
p1602
S'LIDC-IDRI-0038'
p1603
sS'185/147'
p1604
S'LIDC-IDRI-0041'
p1605
sS'185/144'
p1606
S'LIDC-IDRI-0040'
p1607
sS'185/149'
p1608
S'LIDC-IDRI-0042'
p1609
sS'189/130'
p1610
S'LIDC-IDRI-0680'
p1611
sS'187/101'
p1612
S'LIDC-IDRI-0359'
p1613
sS'187/100'
p1614
S'LIDC-IDRI-0358'
p1615
sS'187/103'
p1616
S'LIDC-IDRI-0361'
p1617
sS'188/031'
p1618
S'LIDC-IDRI-0587'
p1619
sS'188/036'
p1620
S'LIDC-IDRI-0592'
p1621
sS'188/037'
p1622
S'LIDC-IDRI-0593'
p1623
sS'187/107'
p1624
S'LIDC-IDRI-0365'
p1625
sS'188/035'
p1626
S'LIDC-IDRI-0591'
p1627
sS'189/015'
p1628
S'LIDC-IDRI-0790'
p1629
sS'189/014'
p1630
S'LIDC-IDRI-0791'
p1631
sS'188/038'
p1632
S'LIDC-IDRI-0594'
p1633
sS'189/016'
p1634
S'LIDC-IDRI-0789'
p1635
sS'189/011'
p1636
S'LIDC-IDRI-0794'
p1637
sS'189/010'
p1638
S'LIDC-IDRI-0795'
p1639
sS'188/114'
p1640
S'LIDC-IDRI-0991'
p1641
sS'189/012'
p1642
S'LIDC-IDRI-0793'
p1643
sS'188/139'
p1644
S'LIDC-IDRI-0966'
p1645
sS'188/138'
p1646
S'LIDC-IDRI-0967'
p1647
sS'188/218'
p1648
S'LIDC-IDRI-0887'
p1649
sS'188/133'
p1650
S'LIDC-IDRI-0972'
p1651
sS'188/132'
p1652
S'LIDC-IDRI-0973'
p1653
sS'188/131'
p1654
S'LIDC-IDRI-0974'
p1655
sS'188/192'
p1656
S'LIDC-IDRI-0913'
p1657
sS'188/137'
p1658
S'LIDC-IDRI-0968'
p1659
sS'188/136'
p1660
S'LIDC-IDRI-0969'
p1661
sS'188/135'
p1662
S'LIDC-IDRI-0970'
p1663
sS'188/134'
p1664
S'LIDC-IDRI-0971'
p1665
sS'189/057'
p1666
S'LIDC-IDRI-0753'
p1667
sS'188/188'
p1668
S'LIDC-IDRI-0917'
p1669
sS'187/285'
p1670
S'LIDC-IDRI-0540'
p1671
sS'186/143'
p1672
S'LIDC-IDRI-0195'
p1673
sS'189/115'
p1674
S'LIDC-IDRI-0695'
p1675
sS'187/246'
p1676
S'LIDC-IDRI-0501'
p1677
sS'187/247'
p1678
S'LIDC-IDRI-0502'
p1679
sS'187/244'
p1680
S'LIDC-IDRI-0499'
p1681
sS'187/245'
p1682
S'LIDC-IDRI-0500'
p1683
sS'187/242'
p1684
S'LIDC-IDRI-0497'
p1685
sS'187/243'
p1686
S'LIDC-IDRI-0498'
p1687
sS'187/240'
p1688
S'LIDC-IDRI-0495'
p1689
sS'187/241'
p1690
S'LIDC-IDRI-0496'
p1691
sS'186/027'
p1692
S'LIDC-IDRI-0134'
p1693
sS'186/024'
p1694
S'LIDC-IDRI-0133'
p1695
sS'186/023'
p1696
S'LIDC-IDRI-0132'
p1697
sS'187/248'
p1698
S'LIDC-IDRI-0503'
p1699
sS'187/249'
p1700
S'LIDC-IDRI-0504'
p1701
sS'186/188'
p1702
S'LIDC-IDRI-0218'
p1703
sS'185/107'
p1704
S'LIDC-IDRI-0021'
p1705
sS'186/181'
p1706
S'LIDC-IDRI-0214'
p1707
sS'189/017'
p1708
S'LIDC-IDRI-0788'
p1709
sS'185/210'
p1710
S'LIDC-IDRI-0070'
p1711
sS'186/184'
p1712
S'LIDC-IDRI-0216'
p1713
sS'186/186'
p1714
S'LIDC-IDRI-0217'
p1715
sS'189/082'
p1716
S'LIDC-IDRI-0728'
p1717
sS'189/083'
p1718
S'LIDC-IDRI-0727'
p1719
sS'189/080'
p1720
S'LIDC-IDRI-0730'
p1721
sS'189/081'
p1722
S'LIDC-IDRI-0729'
p1723
sS'189/086'
p1724
S'LIDC-IDRI-0724'
p1725
sS'188/042'
p1726
S'LIDC-IDRI-0598'
p1727
sS'189/084'
p1728
S'LIDC-IDRI-0726'
p1729
sS'188/040'
p1730
S'LIDC-IDRI-0596'
p1731
sS'189/161'
p1732
S'LIDC-IDRI-0649'
p1733
sS'189/160'
p1734
S'LIDC-IDRI-0650'
p1735
sS'189/163'
p1736
S'LIDC-IDRI-0647'
p1737
sS'189/162'
p1738
S'LIDC-IDRI-0648'
p1739
sS'189/165'
p1740
S'LIDC-IDRI-0645'
p1741
sS'189/164'
p1742
S'LIDC-IDRI-0646'
p1743
sS'189/167'
p1744
S'LIDC-IDRI-0643'
p1745
sS'189/166'
p1746
S'LIDC-IDRI-0644'
p1747
sS'187/118'
p1748
S'LIDC-IDRI-0375'
p1749
sS'186/157'
p1750
S'LIDC-IDRI-0202'
p1751
sS'186/233'
p1752
S'LIDC-IDRI-0242'
p1753
sS'186/231'
p1754
S'LIDC-IDRI-0241'
p1755
sS'186/237'
p1756
S'LIDC-IDRI-0244'
p1757
sS'185/299'
p1758
S'LIDC-IDRI-0118'
p1759
sS'185/298'
p1760
S'LIDC-IDRI-0117'
p1761
sS'185/296'
p1762
S'LIDC-IDRI-0116'
p1763
sS'186/239'
p1764
S'LIDC-IDRI-0245'
p1765
sS'185/293'
p1766
S'LIDC-IDRI-0114'
p1767
sS'186/146'
p1768
S'LIDC-IDRI-0196'
p1769
sS'185/291'
p1770
S'LIDC-IDRI-0113'
p1771
sS'187/119'
p1772
S'LIDC-IDRI-0376'
p1773
sS'186/147'
p1774
S'LIDC-IDRI-0197'
p1775
sS'186/140'
p1776
S'LIDC-IDRI-0193'
p1777
sS'188/240'
p1778
S'LIDC-IDRI-0865'
p1779
sS'188/177'
p1780
S'LIDC-IDRI-0928'
p1781
sS'188/057'
p1782
S'LIDC-IDRI-0613'
p1783
sS'186/142'
p1784
S'LIDC-IDRI-0194'
p1785
sS'187/129'
p1786
S'LIDC-IDRI-0386'
p1787
sS'188/051'
p1788
S'LIDC-IDRI-0607'
p1789
sS'189/079'
p1790
S'LIDC-IDRI-0731'
p1791
sS'189/078'
p1792
S'LIDC-IDRI-0732'
p1793
sS'188/263'
p1794
S'LIDC-IDRI-0842'
p1795
sS'189/077'
p1796
S'LIDC-IDRI-0733'
p1797
sS'188/261'
p1798
S'LIDC-IDRI-0844'
p1799
sS'188/260'
p1800
S'LIDC-IDRI-0845'
p1801
sS'188/267'
p1802
S'LIDC-IDRI-0838'
p1803
sS'186/054'
p1804
S'LIDC-IDRI-0148'
p1805
sS'188/265'
p1806
S'LIDC-IDRI-0840'
p1807
sS'188/264'
p1808
S'LIDC-IDRI-0841'
p1809
sS'188/182'
p1810
S'LIDC-IDRI-0923'
p1811
sS'189/042'
p1812
S'LIDC-IDRI-0768'
p1813
sS'188/269'
p1814
S'LIDC-IDRI-0836'
p1815
sS'188/268'
p1816
S'LIDC-IDRI-0837'
p1817
sS'188/186'
p1818
S'LIDC-IDRI-0919'
p1819
sS'188/187'
p1820
S'LIDC-IDRI-0918'
p1821
sS'188/184'
p1822
S'LIDC-IDRI-0921'
p1823
sS'189/043'
p1824
S'LIDC-IDRI-0767'
p1825
sS'185/205'
p1826
S'LIDC-IDRI-0067'
p1827
sS'189/074'
p1828
S'LIDC-IDRI-0736'
p1829
sS'185/201'
p1830
S'LIDC-IDRI-0065'
p1831
sS'185/203'
p1832
S'LIDC-IDRI-0066'
p1833
sS'189/020'
p1834
S'LIDC-IDRI-0785'
p1835
sS'186/224'
p1836
S'LIDC-IDRI-0236'
p1837
sS'189/041'
p1838
S'LIDC-IDRI-0769'
p1839
sS'185/208'
p1840
S'LIDC-IDRI-0068'
p1841
sS'186/249'
p1842
S'LIDC-IDRI-0250'
p1843
sS'189/072'
p1844
S'LIDC-IDRI-0738'
p1845
sS'188/165'
p1846
S'LIDC-IDRI-0940'
p1847
sS'185/115'
p1848
S'LIDC-IDRI-0025'
p1849
sS'186/153'
p1850
S'LIDC-IDRI-0200'
p1851
sS'189/168'
p1852
S'LIDC-IDRI-0642'
p1853
sS'185/270'
p1854
S'LIDC-IDRI-0102'
p1855
sS'189/126'
p1856
S'LIDC-IDRI-0684'
p1857
sS'188/079'
p1858
S'LIDC-IDRI-0635'
p1859
sS'185/110'
p1860
S'LIDC-IDRI-0022'
p1861
sS'189/085'
p1862
S'LIDC-IDRI-0725'
p1863
sS'187/145'
p1864
S'LIDC-IDRI-0402'
p1865
sS'187/144'
p1866
S'LIDC-IDRI-0401'
p1867
sS'187/147'
p1868
S'LIDC-IDRI-0404'
p1869
sS'187/146'
p1870
S'LIDC-IDRI-0403'
p1871
sS'187/141'
p1872
S'LIDC-IDRI-0398'
p1873
sS'188/105'
p1874
S'LIDC-IDRI-1000'
p1875
sS'187/143'
p1876
S'LIDC-IDRI-0400'
p1877
sS'187/142'
p1878
S'LIDC-IDRI-0399'
p1879
sS'185/069'
p1880
S'LIDC-IDRI-0001'
p1881
sS'189/049'
p1882
S'LIDC-IDRI-0761'
p1883
sS'188/052'
p1884
S'LIDC-IDRI-0608'
p1885
sS'187/148'
p1886
S'LIDC-IDRI-0405'
p1887
sS'188/198'
p1888
S'LIDC-IDRI-0907'
p1889
sS'189/022'
p1890
S'LIDC-IDRI-0783'
p1891
sS'187/068'
p1892
S'LIDC-IDRI-0329'
p1893
sS'187/069'
p1894
S'LIDC-IDRI-0328'
p1895
sS'187/066'
p1896
S'LIDC-IDRI-0326'
p1897
sS'187/067'
p1898
S'LIDC-IDRI-0327'
p1899
sS'187/064'
p1900
S'LIDC-IDRI-0324'
p1901
sS'187/065'
p1902
S'LIDC-IDRI-0325'
p1903
sS'187/062'
p1904
S'LIDC-IDRI-0322'
p1905
sS'187/063'
p1906
S'LIDC-IDRI-0323'
p1907
sS'187/060'
p1908
S'LIDC-IDRI-0320'
p1909
sS'187/061'
p1910
S'LIDC-IDRI-0321'
p1911
sS'157/168'
p1912
S'LIDC-IDRI-0154'
p1913
sS'188/008'
p1914
S'LIDC-IDRI-0563'
p1915
sS'157/160'
p1916
S'LIDC-IDRI-0079'
p1917
sS'157/161'
p1918
S'LIDC-IDRI-0101'
p1919
sS'157/162'
p1920
S'LIDC-IDRI-0110'
p1921
sS'157/163'
p1922
S'LIDC-IDRI-0115'
p1923
sS'157/164'
p1924
S'LIDC-IDRI-0132'
p1925
sS'157/165'
p1926
S'LIDC-IDRI-0136'
p1927
sS'157/166'
p1928
S'LIDC-IDRI-0150'
p1929
sS'157/167'
p1930
S'LIDC-IDRI-0151'
p1931
sS'186/063'
p1932
S'LIDC-IDRI-0153'
p1933
sS'188/032'
p1934
S'LIDC-IDRI-0588'
p1935
sS'186/061'
p1936
S'LIDC-IDRI-0152'
p1937
sS'189/023'
p1938
S'LIDC-IDRI-0782'
p1939
sS'186/065'
p1940
S'LIDC-IDRI-0155'
p1941
sS'188/176'
p1942
S'LIDC-IDRI-0929'
p1943
sS'186/068'
p1944
S'LIDC-IDRI-0156'
p1945
sS'188/030'
p1946
S'LIDC-IDRI-0586'
p1947
sS'189/089'
p1948
S'LIDC-IDRI-0721'
p1949
sS'186/127'
p1950
S'LIDC-IDRI-0186'
p1951
sS'187/208'
p1952
S'LIDC-IDRI-0464'
p1953
sS'187/102'
p1954
S'LIDC-IDRI-0360'
p1955
sS'186/149'
p1956
S'LIDC-IDRI-0198'
p1957
sS'187/202'
p1958
S'LIDC-IDRI-0458'
p1959
sS'189/019'
p1960
S'LIDC-IDRI-0786'
p1961
sS'187/200'
p1962
S'LIDC-IDRI-0456'
p1963
sS'187/201'
p1964
S'LIDC-IDRI-0457'
p1965
sS'187/206'
p1966
S'LIDC-IDRI-0462'
p1967
sS'187/207'
p1968
S'LIDC-IDRI-0463'
p1969
sS'187/204'
p1970
S'LIDC-IDRI-0460'
p1971
sS'187/205'
p1972
S'LIDC-IDRI-0461'
p1973
sS'189/046'
p1974
S'LIDC-IDRI-0764'
p1975
sS'189/047'
p1976
S'LIDC-IDRI-0763'
p1977
sS'189/044'
p1978
S'LIDC-IDRI-0766'
p1979
sS'189/045'
p1980
S'LIDC-IDRI-0765'
p1981
sS'189/129'
p1982
S'LIDC-IDRI-0681'
p1983
sS'189/128'
p1984
S'LIDC-IDRI-0682'
p1985
sS'189/040'
p1986
S'LIDC-IDRI-0770'
p1987
sS'185/072'
p1988
S'LIDC-IDRI-0003'
p1989
sS'189/125'
p1990
S'LIDC-IDRI-0685'
p1991
sS'189/124'
p1992
S'LIDC-IDRI-0686'
p1993
sS'189/127'
p1994
S'LIDC-IDRI-0683'
p1995
sS'187/106'
p1996
S'LIDC-IDRI-0364'
p1997
sS'189/121'
p1998
S'LIDC-IDRI-0689'
p1999
sS'189/120'
p2000
S'LIDC-IDRI-0690'
p2001
sS'189/123'
p2002
S'LIDC-IDRI-0687'
p2003
sS'189/122'
p2004
S'LIDC-IDRI-0688'
p2005
sS'188/164'
p2006
S'LIDC-IDRI-0941'
p2007
sS'187/110'
p2008
S'LIDC-IDRI-0367'
p2009
sS'188/166'
p2010
S'LIDC-IDRI-0939'
p2011
sS'188/167'
p2012
S'LIDC-IDRI-0938'
p2013
sS'188/160'
p2014
S'LIDC-IDRI-0945'
p2015
sS'188/161'
p2016
S'LIDC-IDRI-0944'
p2017
sS'188/162'
p2018
S'LIDC-IDRI-0943'
p2019
sS'188/163'
p2020
S'LIDC-IDRI-0942'
p2021
sS'188/003'
p2022
S'LIDC-IDRI-0558'
p2023
sS'188/002'
p2024
S'LIDC-IDRI-0557'
p2025
sS'188/001'
p2026
S'LIDC-IDRI-0556'
p2027
sS'188/000'
p2028
S'LIDC-IDRI-0555'
p2029
sS'188/168'
p2030
S'LIDC-IDRI-0937'
p2031
sS'188/169'
p2032
S'LIDC-IDRI-0936'
p2033
sS'188/005'
p2034
S'LIDC-IDRI-0560'
p2035
sS'188/004'
p2036
S'LIDC-IDRI-0559'
p2037
s.