(lp1
S'LIDC-IDRI-0098'
p2
aS'LIDC-IDRI-0292'
p3
aS'LIDC-IDRI-0294'
p4
aS'LIDC-IDRI-0296'
p5
aS'LIDC-IDRI-0297'
p6
aS'LIDC-IDRI-0301'
p7
aS'LIDC-IDRI-0302'
p8
aS'LIDC-IDRI-0303'
p9
aS'LIDC-IDRI-0304'
p10
aS'LIDC-IDRI-0306'
p11
aS'LIDC-IDRI-0309'
p12
aS'LIDC-IDRI-0310'
p13
aS'LIDC-IDRI-0314'
p14
aS'LIDC-IDRI-0316'
p15
aS'LIDC-IDRI-0317'
p16
aS'LIDC-IDRI-0318'
p17
aS'LIDC-IDRI-0319'
p18
aS'LIDC-IDRI-0320'
p19
aS'LIDC-IDRI-0322'
p20
aS'LIDC-IDRI-0323'
p21
aS'LIDC-IDRI-0324'
p22
aS'LIDC-IDRI-0325'
p23
aS'LIDC-IDRI-0329'
p24
aS'LIDC-IDRI-0330'
p25
aS'LIDC-IDRI-0332'
p26
aS'LIDC-IDRI-0334'
p27
aS'LIDC-IDRI-0335'
p28
aS'LIDC-IDRI-0336'
p29
aS'LIDC-IDRI-0337'
p30
aS'LIDC-IDRI-0338'
p31
aS'LIDC-IDRI-0342'
p32
aS'LIDC-IDRI-0343'
p33
aS'LIDC-IDRI-0344'
p34
aS'LIDC-IDRI-0348'
p35
aS'LIDC-IDRI-0349'
p36
aS'LIDC-IDRI-0351'
p37
aS'LIDC-IDRI-0352'
p38
aS'LIDC-IDRI-0354'
p39
aS'LIDC-IDRI-0355'
p40
aS'LIDC-IDRI-0356'
p41
aS'LIDC-IDRI-0357'
p42
aS'LIDC-IDRI-0359'
p43
aS'LIDC-IDRI-0361'
p44
aS'LIDC-IDRI-0362'
p45
aS'LIDC-IDRI-0364'
p46
aS'LIDC-IDRI-0365'
p47
aS'LIDC-IDRI-0369'
p48
aS'LIDC-IDRI-0371'
p49
aS'LIDC-IDRI-0373'
p50
aS'LIDC-IDRI-0375'
p51
aS'LIDC-IDRI-0376'
p52
aS'LIDC-IDRI-0377'
p53
aS'LIDC-IDRI-0379'
p54
aS'LIDC-IDRI-0380'
p55
aS'LIDC-IDRI-0381'
p56
aS'LIDC-IDRI-0384'
p57
aS'LIDC-IDRI-0385'
p58
aS'LIDC-IDRI-0386'
p59
aS'LIDC-IDRI-0387'
p60
aS'LIDC-IDRI-0390'
p61
aS'LIDC-IDRI-0391'
p62
aS'LIDC-IDRI-0396'
p63
aS'LIDC-IDRI-0398'
p64
aS'LIDC-IDRI-0400'
p65
aS'LIDC-IDRI-0401'
p66
aS'LIDC-IDRI-0404'
p67
aS'LIDC-IDRI-0405'
p68
aS'LIDC-IDRI-0407'
p69
aS'LIDC-IDRI-0409'
p70
aS'LIDC-IDRI-0410'
p71
aS'LIDC-IDRI-0411'
p72
aS'LIDC-IDRI-0412'
p73
aS'LIDC-IDRI-0413'
p74
aS'LIDC-IDRI-0414'
p75
aS'LIDC-IDRI-0416'
p76
aS'LIDC-IDRI-0417'
p77
aS'LIDC-IDRI-0419'
p78
aS'LIDC-IDRI-0420'
p79
aS'LIDC-IDRI-0425'
p80
aS'LIDC-IDRI-0431'
p81
aS'LIDC-IDRI-0433'
p82
aS'LIDC-IDRI-0435'
p83
aS'LIDC-IDRI-0436'
p84
aS'LIDC-IDRI-0437'
p85
aS'LIDC-IDRI-0438'
p86
aS'LIDC-IDRI-0439'
p87
aS'LIDC-IDRI-0441'
p88
aS'LIDC-IDRI-0446'
p89
aS'LIDC-IDRI-0448'
p90
aS'LIDC-IDRI-0449'
p91
aS'LIDC-IDRI-0451'
p92
aS'LIDC-IDRI-0453'
p93
aS'LIDC-IDRI-0454'
p94
aS'LIDC-IDRI-0456'
p95
aS'LIDC-IDRI-0457'
p96
aS'LIDC-IDRI-0462'
p97
aS'LIDC-IDRI-0463'
p98
aS'LIDC-IDRI-0465'
p99
aS'LIDC-IDRI-0467'
p100
aS'LIDC-IDRI-0469'
p101
aS'LIDC-IDRI-0471'
p102
aS'LIDC-IDRI-0472'
p103
aS'LIDC-IDRI-0474'
p104
aS'LIDC-IDRI-0478'
p105
aS'LIDC-IDRI-0479'
p106
aS'LIDC-IDRI-0480'
p107
aS'LIDC-IDRI-0482'
p108
aS'LIDC-IDRI-0484'
p109
aS'LIDC-IDRI-0486'
p110
aS'LIDC-IDRI-0487'
p111
aS'LIDC-IDRI-0488'
p112
aS'LIDC-IDRI-0490'
p113
aS'LIDC-IDRI-0492'
p114
aS'LIDC-IDRI-0493'
p115
aS'LIDC-IDRI-0494'
p116
aS'LIDC-IDRI-0498'
p117
aS'LIDC-IDRI-0499'
p118
aS'LIDC-IDRI-0500'
p119
aS'LIDC-IDRI-0502'
p120
aS'LIDC-IDRI-0503'
p121
aS'LIDC-IDRI-0505'
p122
aS'LIDC-IDRI-0508'
p123
aS'LIDC-IDRI-0511'
p124
aS'LIDC-IDRI-0512'
p125
aS'LIDC-IDRI-0513'
p126
aS'LIDC-IDRI-0514'
p127
aS'LIDC-IDRI-0516'
p128
aS'LIDC-IDRI-0517'
p129
aS'LIDC-IDRI-0519'
p130
aS'LIDC-IDRI-0520'
p131
aS'LIDC-IDRI-0525'
p132
aS'LIDC-IDRI-0526'
p133
aS'LIDC-IDRI-0527'
p134
aS'LIDC-IDRI-0528'
p135
aS'LIDC-IDRI-0530'
p136
aS'LIDC-IDRI-0531'
p137
aS'LIDC-IDRI-0536'
p138
aS'LIDC-IDRI-0537'
p139
aS'LIDC-IDRI-0538'
p140
aS'LIDC-IDRI-0543'
p141
aS'LIDC-IDRI-0544'
p142
aS'LIDC-IDRI-0547'
p143
aS'LIDC-IDRI-0548'
p144
aS'LIDC-IDRI-0550'
p145
aS'LIDC-IDRI-0551'
p146
aS'LIDC-IDRI-0552'
p147
aS'LIDC-IDRI-0556'
p148
aS'LIDC-IDRI-0557'
p149
aS'LIDC-IDRI-0558'
p150
aS'LIDC-IDRI-0560'
p151
aS'LIDC-IDRI-0561'
p152
aS'LIDC-IDRI-0562'
p153
aS'LIDC-IDRI-0563'
p154
aS'LIDC-IDRI-0564'
p155
aS'LIDC-IDRI-0565'
p156
aS'LIDC-IDRI-0566'
p157
aS'LIDC-IDRI-0567'
p158
aS'LIDC-IDRI-0569'
p159
aS'LIDC-IDRI-0570'
p160
aS'LIDC-IDRI-0571'
p161
aS'LIDC-IDRI-0572'
p162
aS'LIDC-IDRI-0573'
p163
aS'LIDC-IDRI-0575'
p164
aS'LIDC-IDRI-0576'
p165
aS'LIDC-IDRI-0579'
p166
aS'LIDC-IDRI-0580'
p167
aS'LIDC-IDRI-0581'
p168
aS'LIDC-IDRI-0582'
p169
aS'LIDC-IDRI-0583'
p170
aS'LIDC-IDRI-0584'
p171
aS'LIDC-IDRI-0586'
p172
aS'LIDC-IDRI-0587'
p173
aS'LIDC-IDRI-0589'
p174
aS'LIDC-IDRI-0590'
p175
aS'LIDC-IDRI-0595'
p176
aS'LIDC-IDRI-0596'
p177
aS'LIDC-IDRI-0597'
p178
aS'LIDC-IDRI-0598'
p179
aS'LIDC-IDRI-0599'
p180
aS'LIDC-IDRI-0601'
p181
aS'LIDC-IDRI-0602'
p182
aS'LIDC-IDRI-0603'
p183
aS'LIDC-IDRI-0604'
p184
aS'LIDC-IDRI-0605'
p185
aS'LIDC-IDRI-0606'
p186
aS'LIDC-IDRI-0607'
p187
aS'LIDC-IDRI-0608'
p188
aS'LIDC-IDRI-0609'
p189
aS'LIDC-IDRI-0610'
p190
aS'LIDC-IDRI-0612'
p191
aS'LIDC-IDRI-0613'
p192
aS'LIDC-IDRI-0614'
p193
aS'LIDC-IDRI-0615'
p194
aS'LIDC-IDRI-0616'
p195
aS'LIDC-IDRI-0617'
p196
aS'LIDC-IDRI-0620'
p197
aS'LIDC-IDRI-0621'
p198
aS'LIDC-IDRI-0622'
p199
aS'LIDC-IDRI-0624'
p200
aS'LIDC-IDRI-0626'
p201
aS'LIDC-IDRI-0627'
p202
aS'LIDC-IDRI-0630'
p203
aS'LIDC-IDRI-0631'
p204
aS'LIDC-IDRI-0632'
p205
aS'LIDC-IDRI-0634'
p206
aS'LIDC-IDRI-0637'
p207
aS'LIDC-IDRI-0639'
p208
aS'LIDC-IDRI-0643'
p209
aS'LIDC-IDRI-0646'
p210
aS'LIDC-IDRI-0651'
p211
aS'LIDC-IDRI-0653'
p212
aS'LIDC-IDRI-0654'
p213
aS'LIDC-IDRI-0655'
p214
aS'LIDC-IDRI-0657'
p215
aS'LIDC-IDRI-0659'
p216
aS'LIDC-IDRI-0663'
p217
aS'LIDC-IDRI-0664'
p218
aS'LIDC-IDRI-0668'
p219
aS'LIDC-IDRI-0669'
p220
aS'LIDC-IDRI-0670'
p221
aS'LIDC-IDRI-0675'
p222
aS'LIDC-IDRI-0678'
p223
aS'LIDC-IDRI-0679'
p224
aS'LIDC-IDRI-0680'
p225
aS'LIDC-IDRI-0683'
p226
aS'LIDC-IDRI-0684'
p227
aS'LIDC-IDRI-0685'
p228
aS'LIDC-IDRI-0687'
p229
aS'LIDC-IDRI-0690'
p230
aS'LIDC-IDRI-0692'
p231
aS'LIDC-IDRI-0693'
p232
aS'LIDC-IDRI-0694'
p233
aS'LIDC-IDRI-0696'
p234
aS'LIDC-IDRI-0701'
p235
aS'LIDC-IDRI-0703'
p236
aS'LIDC-IDRI-0711'
p237
aS'LIDC-IDRI-0712'
p238
aS'LIDC-IDRI-0713'
p239
aS'LIDC-IDRI-0715'
p240
aS'LIDC-IDRI-0716'
p241
aS'LIDC-IDRI-0717'
p242
aS'LIDC-IDRI-0719'
p243
aS'LIDC-IDRI-0720'
p244
aS'LIDC-IDRI-0721'
p245
aS'LIDC-IDRI-0722'
p246
aS'LIDC-IDRI-0724'
p247
aS'LIDC-IDRI-0726'
p248
aS'LIDC-IDRI-0727'
p249
aS'LIDC-IDRI-0731'
p250
aS'LIDC-IDRI-0732'
p251
aS'LIDC-IDRI-0733'
p252
aS'LIDC-IDRI-0735'
p253
aS'LIDC-IDRI-0737'
p254
aS'LIDC-IDRI-0738'
p255
aS'LIDC-IDRI-0740'
p256
aS'LIDC-IDRI-0741'
p257
aS'LIDC-IDRI-0742'
p258
aS'LIDC-IDRI-0743'
p259
aS'LIDC-IDRI-0744'
p260
aS'LIDC-IDRI-0745'
p261
aS'LIDC-IDRI-0747'
p262
aS'LIDC-IDRI-0749'
p263
aS'LIDC-IDRI-0750'
p264
aS'LIDC-IDRI-0753'
p265
aS'LIDC-IDRI-0755'
p266
aS'LIDC-IDRI-0759'
p267
aS'LIDC-IDRI-0763'
p268
aS'LIDC-IDRI-0764'
p269
aS'LIDC-IDRI-0765'
p270
aS'LIDC-IDRI-0766'
p271
aS'LIDC-IDRI-0767'
p272
aS'LIDC-IDRI-0768'
p273
aS'LIDC-IDRI-0769'
p274
aS'LIDC-IDRI-0771'
p275
aS'LIDC-IDRI-0773'
p276
aS'LIDC-IDRI-0779'
p277
aS'LIDC-IDRI-0780'
p278
aS'LIDC-IDRI-0786'
p279
aS'LIDC-IDRI-0787'
p280
aS'LIDC-IDRI-0789'
p281
aS'LIDC-IDRI-0792'
p282
aS'LIDC-IDRI-0794'
p283
aS'LIDC-IDRI-0795'
p284
aS'LIDC-IDRI-0797'
p285
aS'LIDC-IDRI-0798'
p286
aS'LIDC-IDRI-0800'
p287
aS'LIDC-IDRI-0801'
p288
aS'LIDC-IDRI-0804'
p289
aS'LIDC-IDRI-0806'
p290
aS'LIDC-IDRI-0809'
p291
aS'LIDC-IDRI-0811'
p292
aS'LIDC-IDRI-0813'
p293
aS'LIDC-IDRI-0814'
p294
aS'LIDC-IDRI-0816'
p295
aS'LIDC-IDRI-0817'
p296
aS'LIDC-IDRI-0819'
p297
aS'LIDC-IDRI-0821'
p298
aS'LIDC-IDRI-0822'
p299
aS'LIDC-IDRI-0823'
p300
aS'LIDC-IDRI-0824'
p301
aS'LIDC-IDRI-0830'
p302
aS'LIDC-IDRI-0831'
p303
aS'LIDC-IDRI-0832'
p304
aS'LIDC-IDRI-0834'
p305
aS'LIDC-IDRI-0835'
p306
aS'LIDC-IDRI-0836'
p307
aS'LIDC-IDRI-0841'
p308
aS'LIDC-IDRI-0843'
p309
aS'LIDC-IDRI-0844'
p310
aS'LIDC-IDRI-0845'
p311
aS'LIDC-IDRI-0846'
p312
aS'LIDC-IDRI-0847'
p313
aS'LIDC-IDRI-0849'
p314
aS'LIDC-IDRI-0851'
p315
aS'LIDC-IDRI-0852'
p316
aS'LIDC-IDRI-0853'
p317
aS'LIDC-IDRI-0857'
p318
aS'LIDC-IDRI-0860'
p319
aS'LIDC-IDRI-0862'
p320
aS'LIDC-IDRI-0863'
p321
aS'LIDC-IDRI-0866'
p322
aS'LIDC-IDRI-0868'
p323
aS'LIDC-IDRI-0869'
p324
aS'LIDC-IDRI-0870'
p325
aS'LIDC-IDRI-0871'
p326
aS'LIDC-IDRI-0873'
p327
aS'LIDC-IDRI-0875'
p328
aS'LIDC-IDRI-0876'
p329
aS'LIDC-IDRI-0878'
p330
aS'LIDC-IDRI-0880'
p331
aS'LIDC-IDRI-0881'
p332
aS'LIDC-IDRI-0885'
p333
aS'LIDC-IDRI-0886'
p334
aS'LIDC-IDRI-0887'
p335
aS'LIDC-IDRI-0889'
p336
aS'LIDC-IDRI-0891'
p337
aS'LIDC-IDRI-0893'
p338
aS'LIDC-IDRI-0895'
p339
aS'LIDC-IDRI-0896'
p340
aS'LIDC-IDRI-0898'
p341
aS'LIDC-IDRI-0899'
p342
aS'LIDC-IDRI-0901'
p343
aS'LIDC-IDRI-0903'
p344
aS'LIDC-IDRI-0904'
p345
aS'LIDC-IDRI-0905'
p346
aS'LIDC-IDRI-0906'
p347
aS'LIDC-IDRI-0909'
p348
aS'LIDC-IDRI-0911'
p349
aS'LIDC-IDRI-0912'
p350
aS'LIDC-IDRI-0913'
p351
aS'LIDC-IDRI-0915'
p352
aS'LIDC-IDRI-0916'
p353
aS'LIDC-IDRI-0917'
p354
aS'LIDC-IDRI-0918'
p355
aS'LIDC-IDRI-0921'
p356
aS'LIDC-IDRI-0922'
p357
aS'LIDC-IDRI-0923'
p358
aS'LIDC-IDRI-0926'
p359
aS'LIDC-IDRI-0927'
p360
aS'LIDC-IDRI-0931'
p361
aS'LIDC-IDRI-0934'
p362
aS'LIDC-IDRI-0935'
p363
aS'LIDC-IDRI-0937'
p364
aS'LIDC-IDRI-0939'
p365
aS'LIDC-IDRI-0942'
p366
aS'LIDC-IDRI-0945'
p367
aS'LIDC-IDRI-0946'
p368
aS'LIDC-IDRI-0948'
p369
aS'LIDC-IDRI-0951'
p370
aS'LIDC-IDRI-0952'
p371
aS'LIDC-IDRI-0953'
p372
aS'LIDC-IDRI-0958'
p373
aS'LIDC-IDRI-0962'
p374
aS'LIDC-IDRI-0963'
p375
aS'LIDC-IDRI-0964'
p376
aS'LIDC-IDRI-0966'
p377
aS'LIDC-IDRI-0967'
p378
aS'LIDC-IDRI-0973'
p379
aS'LIDC-IDRI-0974'
p380
aS'LIDC-IDRI-0976'
p381
aS'LIDC-IDRI-0977'
p382
aS'LIDC-IDRI-0978'
p383
aS'LIDC-IDRI-0980'
p384
aS'LIDC-IDRI-0981'
p385
aS'LIDC-IDRI-0982'
p386
aS'LIDC-IDRI-0985'
p387
aS'LIDC-IDRI-0989'
p388
aS'LIDC-IDRI-0990'
p389
aS'LIDC-IDRI-0993'
p390
aS'LIDC-IDRI-0995'
p391
aS'LIDC-IDRI-0996'
p392
aS'LIDC-IDRI-0997'
p393
aS'LIDC-IDRI-0999'
p394
aS'LIDC-IDRI-1000'
p395
aS'LIDC-IDRI-1001'
p396
aS'LIDC-IDRI-1002'
p397
aS'LIDC-IDRI-1003'
p398
aS'LIDC-IDRI-1004'
p399
aS'LIDC-IDRI-1006'
p400
a.