(lp1
S'157/158'
p2
aS'157/159'
p3
aS'157/160'
p4
aS'157/161'
p5
aS'157/162'
p6
aS'157/163'
p7
aS'157/164'
p8
aS'157/165'
p9
aS'157/166'
p10
aS'157/167'
p11
aS'157/168'
p12
aS'185/069'
p13
aS'185/071'
p14
aS'185/072'
p15
aS'185/074'
p16
aS'185/076'
p17
aS'185/078'
p18
aS'185/081'
p19
aS'185/082'
p20
aS'185/085'
p21
aS'185/086'
p22
aS'185/088'
p23
aS'185/089'
p24
aS'185/092'
p25
aS'185/094'
p26
aS'185/096'
p27
aS'185/098'
p28
aS'185/100'
p29
aS'185/102'
p30
aS'185/103'
p31
aS'185/106'
p32
aS'185/107'
p33
aS'185/110'
p34
aS'185/111'
p35
aS'185/113'
p36
aS'185/115'
p37
aS'185/117'
p38
aS'185/118'
p39
aS'185/121'
p40
aS'185/123'
p41
aS'185/125'
p42
aS'185/127'
p43
aS'185/129'
p44
aS'185/131'
p45
aS'185/133'
p46
aS'185/134'
p47
aS'185/136'
p48
aS'185/138'
p49
aS'185/140'
p50
aS'185/143'
p51
aS'185/144'
p52
aS'185/147'
p53
aS'185/149'
p54
aS'185/150'
p55
aS'185/152'
p56
aS'185/154'
p57
aS'185/156'
p58
aS'185/159'
p59
aS'185/161'
p60
aS'185/163'
p61
aS'185/165'
p62
aS'185/167'
p63
aS'185/169'
p64
aS'185/171'
p65
aS'185/172'
p66
aS'185/174'
p67
aS'185/177'
p68
aS'185/178'
p69
aS'185/188'
p70
aS'185/190'
p71
aS'185/191'
p72
aS'185/194'
p73
aS'185/195'
p74
aS'185/197'
p75
aS'185/199'
p76
aS'185/201'
p77
aS'185/203'
p78
aS'185/205'
p79
aS'185/208'
p80
aS'185/210'
p81
aS'185/212'
p82
aS'185/215'
p83
aS'185/216'
p84
aS'185/218'
p85
aS'185/220'
p86
aS'185/223'
p87
aS'185/224'
p88
aS'185/228'
p89
aS'185/231'
p90
aS'185/233'
p91
aS'185/234'
p92
aS'185/236'
p93
aS'185/238'
p94
aS'185/240'
p95
aS'185/243'
p96
aS'185/245'
p97
aS'185/246'
p98
aS'185/248'
p99
aS'185/251'
p100
aS'185/252'
p101
aS'185/253'
p102
aS'185/255'
p103
aS'185/257'
p104
aS'185/259'
p105
aS'185/262'
p106
aS'185/263'
p107
aS'185/266'
p108
aS'185/268'
p109
aS'185/270'
p110
aS'185/272'
p111
aS'185/275'
p112
aS'185/277'
p113
aS'185/278'
p114
aS'185/280'
p115
aS'185/282'
p116
aS'185/285'
p117
aS'185/287'
p118
aS'185/288'
p119
aS'185/291'
p120
aS'185/293'
p121
aS'185/296'
p122
aS'185/298'
p123
aS'185/299'
p124
aS'186/000'
p125
aS'186/003'
p126
aS'186/004'
p127
aS'186/006'
p128
aS'186/007'
p129
aS'186/009'
p130
aS'186/011'
p131
aS'186/012'
p132
aS'186/015'
p133
aS'186/017'
p134
aS'186/019'
p135
aS'186/021'
p136
aS'186/023'
p137
aS'186/024'
p138
aS'186/027'
p139
aS'186/028'
p140
aS'186/031'
p141
aS'186/034'
p142
aS'186/035'
p143
aS'186/038'
p144
aS'186/039'
p145
aS'186/042'
p146
aS'186/044'
p147
aS'186/046'
p148
aS'186/048'
p149
aS'186/049'
p150
aS'186/052'
p151
aS'186/054'
p152
aS'186/056'
p153
aS'186/059'
p154
aS'186/061'
p155
aS'186/063'
p156
aS'186/065'
p157
aS'186/068'
p158
aS'186/070'
p159
aS'186/071'
p160
aS'186/074'
p161
aS'186/076'
p162
aS'186/078'
p163
aS'186/079'
p164
aS'186/081'
p165
aS'186/084'
p166
aS'186/086'
p167
aS'186/088'
p168
aS'186/090'
p169
aS'186/091'
p170
aS'186/093'
p171
aS'186/096'
p172
aS'186/097'
p173
aS'186/099'
p174
aS'186/102'
p175
aS'186/103'
p176
aS'186/106'
p177
aS'186/107'
p178
aS'186/109'
p179
aS'186/111'
p180
aS'186/113'
p181
aS'186/116'
p182
aS'186/117'
p183
aS'186/119'
p184
aS'186/120'
p185
aS'186/123'
p186
aS'186/124'
p187
aS'186/127'
p188
aS'186/129'
p189
aS'186/130'
p190
aS'186/131'
p191
aS'186/134'
p192
aS'186/135'
p193
aS'186/137'
p194
aS'186/140'
p195
aS'186/142'
p196
aS'186/143'
p197
aS'186/146'
p198
aS'186/147'
p199
aS'186/149'
p200
aS'186/151'
p201
aS'186/153'
p202
aS'186/155'
p203
aS'186/157'
p204
aS'186/160'
p205
aS'186/161'
p206
aS'186/164'
p207
aS'186/165'
p208
aS'186/167'
p209
aS'186/168'
p210
aS'186/171'
p211
aS'186/173'
p212
aS'186/175'
p213
aS'186/177'
p214
aS'186/179'
p215
aS'186/181'
p216
aS'186/183'
p217
aS'186/184'
p218
aS'186/186'
p219
aS'186/188'
p220
aS'186/191'
p221
aS'186/193'
p222
aS'186/195'
p223
aS'186/197'
p224
aS'186/199'
p225
aS'186/200'
p226
aS'186/203'
p227
aS'186/205'
p228
aS'186/206'
p229
aS'186/208'
p230
aS'186/210'
p231
aS'186/213'
p232
aS'186/214'
p233
aS'186/216'
p234
aS'186/217'
p235
aS'186/220'
p236
aS'186/222'
p237
aS'186/224'
p238
aS'186/225'
p239
aS'186/228'
p240
aS'186/229'
p241
aS'186/231'
p242
aS'186/233'
p243
aS'186/235'
p244
aS'186/237'
p245
aS'186/239'
p246
aS'186/242'
p247
aS'186/244'
p248
aS'186/246'
p249
aS'186/248'
p250
aS'186/249'
p251
aS'186/251'
p252
aS'186/254'
p253
aS'186/256'
p254
aS'186/258'
p255
aS'186/259'
p256
aS'186/261'
p257
aS'186/264'
p258
aS'186/266'
p259
aS'186/268'
p260
aS'186/270'
p261
aS'186/272'
p262
aS'186/273'
p263
aS'186/274'
p264
aS'186/276'
p265
aS'186/279'
p266
aS'186/281'
p267
aS'186/283'
p268
aS'186/284'
p269
aS'186/287'
p270
aS'186/288'
p271
aS'186/291'
p272
aS'186/293'
p273
aS'186/294'
p274
aS'186/297'
p275
aS'186/298'
p276
aS'187/000'
p277
aS'187/003'
p278
aS'187/004'
p279
aS'187/007'
p280
aS'187/008'
p281
aS'187/011'
p282
aS'187/012'
p283
aS'187/014'
p284
aS'187/016'
p285
aS'187/019'
p286
aS'187/020'
p287
aS'187/023'
p288
aS'187/024'
p289
aS'187/026'
p290
aS'187/029'
p291
aS'187/030'
p292
aS'187/031'
p293
aS'187/032'
p294
aS'187/033'
p295
aS'187/034'
p296
aS'187/035'
p297
aS'187/036'
p298
aS'187/037'
p299
aS'187/038'
p300
aS'187/039'
p301
aS'187/040'
p302
aS'187/041'
p303
aS'187/042'
p304
aS'187/043'
p305
aS'187/044'
p306
aS'187/045'
p307
aS'187/046'
p308
aS'187/047'
p309
aS'187/048'
p310
aS'187/049'
p311
aS'187/050'
p312
aS'187/051'
p313
aS'187/052'
p314
aS'187/053'
p315
aS'187/054'
p316
aS'187/055'
p317
aS'187/056'
p318
aS'187/057'
p319
aS'187/058'
p320
aS'187/059'
p321
aS'187/060'
p322
aS'187/061'
p323
aS'187/062'
p324
aS'187/063'
p325
aS'187/064'
p326
aS'187/065'
p327
aS'187/066'
p328
aS'187/067'
p329
aS'187/068'
p330
aS'187/069'
p331
aS'187/070'
p332
aS'187/071'
p333
aS'187/072'
p334
aS'187/073'
p335
aS'187/074'
p336
aS'187/075'
p337
aS'187/076'
p338
aS'187/077'
p339
aS'187/078'
p340
aS'187/079'
p341
aS'187/080'
p342
aS'187/081'
p343
aS'187/082'
p344
aS'187/083'
p345
aS'187/084'
p346
aS'187/085'
p347
aS'187/086'
p348
aS'187/087'
p349
aS'187/088'
p350
aS'187/089'
p351
aS'187/090'
p352
aS'187/091'
p353
aS'187/092'
p354
aS'187/093'
p355
aS'187/094'
p356
aS'187/095'
p357
aS'187/096'
p358
aS'187/097'
p359
aS'187/098'
p360
aS'187/099'
p361
aS'187/100'
p362
aS'187/101'
p363
aS'187/102'
p364
aS'187/103'
p365
aS'187/104'
p366
aS'187/105'
p367
aS'187/106'
p368
aS'187/107'
p369
aS'187/108'
p370
aS'187/109'
p371
aS'187/110'
p372
aS'187/111'
p373
aS'187/112'
p374
aS'187/113'
p375
aS'187/114'
p376
aS'187/115'
p377
aS'187/116'
p378
aS'187/117'
p379
aS'187/118'
p380
aS'187/119'
p381
aS'187/120'
p382
aS'187/121'
p383
aS'187/122'
p384
aS'187/123'
p385
aS'187/124'
p386
aS'187/125'
p387
aS'187/126'
p388
aS'187/127'
p389
aS'187/128'
p390
aS'187/129'
p391
aS'187/130'
p392
aS'187/131'
p393
aS'187/132'
p394
aS'187/133'
p395
aS'187/134'
p396
aS'187/135'
p397
aS'187/136'
p398
aS'187/137'
p399
aS'187/138'
p400
aS'187/139'
p401
aS'187/140'
p402
aS'187/141'
p403
aS'187/142'
p404
aS'187/143'
p405
aS'187/144'
p406
aS'187/145'
p407
aS'187/146'
p408
aS'187/147'
p409
aS'187/148'
p410
aS'187/149'
p411
aS'187/150'
p412
aS'187/151'
p413
aS'187/152'
p414
aS'187/153'
p415
aS'187/154'
p416
aS'187/155'
p417
aS'187/156'
p418
aS'187/157'
p419
aS'187/158'
p420
aS'187/159'
p421
aS'187/160'
p422
aS'187/161'
p423
aS'187/162'
p424
aS'187/163'
p425
aS'187/164'
p426
aS'187/165'
p427
aS'187/166'
p428
aS'187/167'
p429
aS'187/168'
p430
aS'187/169'
p431
aS'187/170'
p432
aS'187/171'
p433
aS'187/172'
p434
aS'187/173'
p435
aS'187/174'
p436
aS'187/175'
p437
aS'187/176'
p438
aS'187/177'
p439
aS'187/178'
p440
aS'187/179'
p441
aS'187/180'
p442
aS'187/181'
p443
aS'187/182'
p444
aS'187/183'
p445
aS'187/184'
p446
aS'187/185'
p447
aS'187/186'
p448
aS'187/187'
p449
aS'187/188'
p450
aS'187/189'
p451
aS'187/190'
p452
aS'187/191'
p453
aS'187/192'
p454
aS'187/193'
p455
aS'187/194'
p456
aS'187/195'
p457
aS'187/196'
p458
aS'187/197'
p459
aS'187/198'
p460
aS'187/199'
p461
aS'187/200'
p462
aS'187/201'
p463
aS'187/202'
p464
aS'187/203'
p465
aS'187/204'
p466
aS'187/205'
p467
aS'187/206'
p468
aS'187/207'
p469
aS'187/208'
p470
aS'187/209'
p471
aS'187/210'
p472
aS'187/211'
p473
aS'187/212'
p474
aS'187/213'
p475
aS'187/214'
p476
aS'187/215'
p477
aS'187/216'
p478
aS'187/217'
p479
aS'187/218'
p480
aS'187/219'
p481
aS'187/220'
p482
aS'187/221'
p483
aS'187/222'
p484
aS'187/223'
p485
aS'187/224'
p486
aS'187/225'
p487
aS'187/226'
p488
aS'187/227'
p489
aS'187/228'
p490
aS'187/229'
p491
aS'187/230'
p492
aS'187/231'
p493
aS'187/232'
p494
aS'187/233'
p495
aS'187/234'
p496
aS'187/235'
p497
aS'187/236'
p498
aS'187/237'
p499
aS'187/238'
p500
aS'187/239'
p501
aS'187/240'
p502
aS'187/241'
p503
aS'187/242'
p504
aS'187/243'
p505
aS'187/244'
p506
aS'187/245'
p507
aS'187/246'
p508
aS'187/247'
p509
aS'187/248'
p510
aS'187/249'
p511
aS'187/250'
p512
aS'187/251'
p513
aS'187/252'
p514
aS'187/253'
p515
aS'187/254'
p516
aS'187/255'
p517
aS'187/256'
p518
aS'187/257'
p519
aS'187/258'
p520
aS'187/259'
p521
aS'187/260'
p522
aS'187/261'
p523
aS'187/262'
p524
aS'187/263'
p525
aS'187/264'
p526
aS'187/265'
p527
aS'187/266'
p528
aS'187/267'
p529
aS'187/268'
p530
aS'187/269'
p531
aS'187/270'
p532
aS'187/271'
p533
aS'187/272'
p534
aS'187/273'
p535
aS'187/274'
p536
aS'187/275'
p537
aS'187/276'
p538
aS'187/277'
p539
aS'187/278'
p540
aS'187/279'
p541
aS'187/280'
p542
aS'187/281'
p543
aS'187/282'
p544
aS'187/283'
p545
aS'187/284'
p546
aS'187/285'
p547
aS'187/286'
p548
aS'187/287'
p549
aS'187/288'
p550
aS'187/289'
p551
aS'187/290'
p552
aS'187/291'
p553
aS'187/292'
p554
aS'187/293'
p555
aS'187/294'
p556
aS'187/295'
p557
aS'187/296'
p558
aS'187/297'
p559
aS'187/298'
p560
aS'187/299'
p561
aS'188/000'
p562
aS'188/001'
p563
aS'188/002'
p564
aS'188/003'
p565
aS'188/004'
p566
aS'188/005'
p567
aS'188/006'
p568
aS'188/007'
p569
aS'188/008'
p570
aS'188/009'
p571
aS'188/010'
p572
aS'188/011'
p573
aS'188/012'
p574
aS'188/013'
p575
aS'188/014'
p576
aS'188/015'
p577
aS'188/016'
p578
aS'188/017'
p579
aS'188/018'
p580
aS'188/019'
p581
aS'188/020'
p582
aS'188/021'
p583
aS'188/022'
p584
aS'188/023'
p585
aS'188/024'
p586
aS'188/025'
p587
aS'188/026'
p588
aS'188/027'
p589
aS'188/028'
p590
aS'188/029'
p591
aS'188/030'
p592
aS'188/031'
p593
aS'188/032'
p594
aS'188/033'
p595
aS'188/034'
p596
aS'188/035'
p597
aS'188/036'
p598
aS'188/037'
p599
aS'188/038'
p600
aS'188/039'
p601
aS'188/040'
p602
aS'188/041'
p603
aS'188/042'
p604
aS'188/043'
p605
aS'188/044'
p606
aS'188/045'
p607
aS'188/046'
p608
aS'188/047'
p609
aS'188/048'
p610
aS'188/049'
p611
aS'188/050'
p612
aS'188/051'
p613
aS'188/052'
p614
aS'188/053'
p615
aS'188/054'
p616
aS'188/055'
p617
aS'188/056'
p618
aS'188/057'
p619
aS'188/058'
p620
aS'188/059'
p621
aS'188/060'
p622
aS'188/061'
p623
aS'188/062'
p624
aS'188/063'
p625
aS'188/064'
p626
aS'188/065'
p627
aS'188/066'
p628
aS'188/067'
p629
aS'188/068'
p630
aS'188/069'
p631
aS'188/070'
p632
aS'188/071'
p633
aS'188/072'
p634
aS'188/073'
p635
aS'188/074'
p636
aS'188/075'
p637
aS'188/076'
p638
aS'188/077'
p639
aS'188/078'
p640
aS'188/079'
p641
aS'188/080'
p642
aS'188/081'
p643
aS'188/082'
p644
aS'188/087'
p645
aS'188/091'
p646
aS'188/094'
p647
aS'188/097'
p648
aS'188/098'
p649
aS'188/099'
p650
aS'188/100'
p651
aS'188/101'
p652
aS'188/102'
p653
aS'188/103'
p654
aS'188/104'
p655
aS'188/105'
p656
aS'188/106'
p657
aS'188/107'
p658
aS'188/108'
p659
aS'188/109'
p660
aS'188/110'
p661
aS'188/111'
p662
aS'188/112'
p663
aS'188/113'
p664
aS'188/114'
p665
aS'188/115'
p666
aS'188/116'
p667
aS'188/117'
p668
aS'188/118'
p669
aS'188/119'
p670
aS'188/120'
p671
aS'188/121'
p672
aS'188/122'
p673
aS'188/123'
p674
aS'188/124'
p675
aS'188/125'
p676
aS'188/126'
p677
aS'188/127'
p678
aS'188/128'
p679
aS'188/129'
p680
aS'188/130'
p681
aS'188/131'
p682
aS'188/132'
p683
aS'188/133'
p684
aS'188/134'
p685
aS'188/135'
p686
aS'188/136'
p687
aS'188/137'
p688
aS'188/138'
p689
aS'188/139'
p690
aS'188/140'
p691
aS'188/141'
p692
aS'188/142'
p693
aS'188/143'
p694
aS'188/144'
p695
aS'188/145'
p696
aS'188/146'
p697
aS'188/147'
p698
aS'188/148'
p699
aS'188/149'
p700
aS'188/150'
p701
aS'188/151'
p702
aS'188/152'
p703
aS'188/153'
p704
aS'188/154'
p705
aS'188/155'
p706
aS'188/156'
p707
aS'188/157'
p708
aS'188/158'
p709
aS'188/159'
p710
aS'188/160'
p711
aS'188/161'
p712
aS'188/162'
p713
aS'188/163'
p714
aS'188/164'
p715
aS'188/165'
p716
aS'188/166'
p717
aS'188/167'
p718
aS'188/168'
p719
aS'188/169'
p720
aS'188/170'
p721
aS'188/171'
p722
aS'188/172'
p723
aS'188/173'
p724
aS'188/174'
p725
aS'188/175'
p726
aS'188/176'
p727
aS'188/177'
p728
aS'188/178'
p729
aS'188/179'
p730
aS'188/180'
p731
aS'188/181'
p732
aS'188/182'
p733
aS'188/183'
p734
aS'188/184'
p735
aS'188/185'
p736
aS'188/186'
p737
aS'188/187'
p738
aS'188/188'
p739
aS'188/189'
p740
aS'188/190'
p741
aS'188/191'
p742
aS'188/192'
p743
aS'188/193'
p744
aS'188/194'
p745
aS'188/195'
p746
aS'188/196'
p747
aS'188/197'
p748
aS'188/198'
p749
aS'188/199'
p750
aS'188/200'
p751
aS'188/201'
p752
aS'188/202'
p753
aS'188/203'
p754
aS'188/204'
p755
aS'188/205'
p756
aS'188/206'
p757
aS'188/207'
p758
aS'188/208'
p759
aS'188/209'
p760
aS'188/210'
p761
aS'188/211'
p762
aS'188/212'
p763
aS'188/213'
p764
aS'188/214'
p765
aS'188/215'
p766
aS'188/216'
p767
aS'188/217'
p768
aS'188/218'
p769
aS'188/219'
p770
aS'188/220'
p771
aS'188/221'
p772
aS'188/222'
p773
aS'188/223'
p774
aS'188/224'
p775
aS'188/225'
p776
aS'188/226'
p777
aS'188/227'
p778
aS'188/228'
p779
aS'188/229'
p780
aS'188/230'
p781
aS'188/231'
p782
aS'188/232'
p783
aS'188/233'
p784
aS'188/234'
p785
aS'188/235'
p786
aS'188/236'
p787
aS'188/237'
p788
aS'188/238'
p789
aS'188/239'
p790
aS'188/240'
p791
aS'188/241'
p792
aS'188/242'
p793
aS'188/243'
p794
aS'188/244'
p795
aS'188/245'
p796
aS'188/246'
p797
aS'188/247'
p798
aS'188/248'
p799
aS'188/249'
p800
aS'188/250'
p801
aS'188/251'
p802
aS'188/252'
p803
aS'188/253'
p804
aS'188/254'
p805
aS'188/255'
p806
aS'188/256'
p807
aS'188/257'
p808
aS'188/258'
p809
aS'188/259'
p810
aS'188/260'
p811
aS'188/261'
p812
aS'188/262'
p813
aS'188/263'
p814
aS'188/264'
p815
aS'188/265'
p816
aS'188/266'
p817
aS'188/267'
p818
aS'188/268'
p819
aS'188/269'
p820
aS'188/270'
p821
aS'188/271'
p822
aS'188/272'
p823
aS'188/273'
p824
aS'188/274'
p825
aS'188/275'
p826
aS'188/276'
p827
aS'188/277'
p828
aS'188/278'
p829
aS'188/279'
p830
aS'188/280'
p831
aS'188/281'
p832
aS'188/282'
p833
aS'188/283'
p834
aS'188/284'
p835
aS'188/285'
p836
aS'188/286'
p837
aS'188/287'
p838
aS'188/288'
p839
aS'188/289'
p840
aS'188/290'
p841
aS'188/291'
p842
aS'188/292'
p843
aS'188/293'
p844
aS'188/294'
p845
aS'188/295'
p846
aS'188/296'
p847
aS'188/297'
p848
aS'188/298'
p849
aS'188/299'
p850
aS'189/000'
p851
aS'189/001'
p852
aS'189/002'
p853
aS'189/003'
p854
aS'189/004'
p855
aS'189/005'
p856
aS'189/006'
p857
aS'189/007'
p858
aS'189/008'
p859
aS'189/009'
p860
aS'189/010'
p861
aS'189/011'
p862
aS'189/012'
p863
aS'189/013'
p864
aS'189/014'
p865
aS'189/015'
p866
aS'189/016'
p867
aS'189/017'
p868
aS'189/018'
p869
aS'189/019'
p870
aS'189/020'
p871
aS'189/021'
p872
aS'189/022'
p873
aS'189/023'
p874
aS'189/024'
p875
aS'189/025'
p876
aS'189/026'
p877
aS'189/027'
p878
aS'189/028'
p879
aS'189/034'
p880
aS'189/035'
p881
aS'189/036'
p882
aS'189/037'
p883
aS'189/038'
p884
aS'189/039'
p885
aS'189/040'
p886
aS'189/041'
p887
aS'189/042'
p888
aS'189/043'
p889
aS'189/044'
p890
aS'189/045'
p891
aS'189/046'
p892
aS'189/047'
p893
aS'189/048'
p894
aS'189/049'
p895
aS'189/050'
p896
aS'189/051'
p897
aS'189/052'
p898
aS'189/053'
p899
aS'189/054'
p900
aS'189/055'
p901
aS'189/056'
p902
aS'189/057'
p903
aS'189/058'
p904
aS'189/059'
p905
aS'189/060'
p906
aS'189/061'
p907
aS'189/062'
p908
aS'189/063'
p909
aS'189/064'
p910
aS'189/065'
p911
aS'189/066'
p912
aS'189/067'
p913
aS'189/068'
p914
aS'189/069'
p915
aS'189/070'
p916
aS'189/071'
p917
aS'189/072'
p918
aS'189/073'
p919
aS'189/074'
p920
aS'189/075'
p921
aS'189/076'
p922
aS'189/077'
p923
aS'189/078'
p924
aS'189/079'
p925
aS'189/080'
p926
aS'189/081'
p927
aS'189/082'
p928
aS'189/083'
p929
aS'189/084'
p930
aS'189/085'
p931
aS'189/086'
p932
aS'189/087'
p933
aS'189/088'
p934
aS'189/089'
p935
aS'189/090'
p936
aS'189/091'
p937
aS'189/092'
p938
aS'189/093'
p939
aS'189/094'
p940
aS'189/095'
p941
aS'189/096'
p942
aS'189/097'
p943
aS'189/098'
p944
aS'189/099'
p945
aS'189/100'
p946
aS'189/101'
p947
aS'189/102'
p948
aS'189/103'
p949
aS'189/104'
p950
aS'189/105'
p951
aS'189/106'
p952
aS'189/107'
p953
aS'189/108'
p954
aS'189/109'
p955
aS'189/110'
p956
aS'189/111'
p957
aS'189/112'
p958
aS'189/113'
p959
aS'189/114'
p960
aS'189/115'
p961
aS'189/116'
p962
aS'189/117'
p963
aS'189/118'
p964
aS'189/119'
p965
aS'189/120'
p966
aS'189/121'
p967
aS'189/122'
p968
aS'189/123'
p969
aS'189/124'
p970
aS'189/125'
p971
aS'189/126'
p972
aS'189/127'
p973
aS'189/128'
p974
aS'189/129'
p975
aS'189/130'
p976
aS'189/131'
p977
aS'189/132'
p978
aS'189/133'
p979
aS'189/134'
p980
aS'189/135'
p981
aS'189/136'
p982
aS'189/137'
p983
aS'189/138'
p984
aS'189/139'
p985
aS'189/140'
p986
aS'189/141'
p987
aS'189/142'
p988
aS'189/143'
p989
aS'189/144'
p990
aS'189/145'
p991
aS'189/146'
p992
aS'189/147'
p993
aS'189/148'
p994
aS'189/149'
p995
aS'189/150'
p996
aS'189/151'
p997
aS'189/152'
p998
aS'189/153'
p999
aS'189/154'
p1000
aS'189/155'
p1001
aS'189/156'
p1002
aS'189/157'
p1003
aS'189/158'
p1004
aS'189/159'
p1005
aS'189/160'
p1006
aS'189/161'
p1007
aS'189/162'
p1008
aS'189/163'
p1009
aS'189/164'
p1010
aS'189/165'
p1011
aS'189/166'
p1012
aS'189/167'
p1013
aS'189/168'
p1014
aS'189/169'
p1015
aS'189/170'
p1016
aS'189/171'
p1017
aS'189/172'
p1018
aS'189/173'
p1019
a.